
smokingmeshine.elf:     file format elf32-littleriscv
smokingmeshine.elf
architecture: riscv:rv32, flags 0x00000112:
EXEC_P, HAS_SYMS, D_PAGED
start address 0x00000000

Program Header:
    LOAD off    0x00001000 vaddr 0x00000000 paddr 0x00000000 align 2**12
         filesz 0x000039b8 memsz 0x000039b8 flags r-x
    LOAD off    0x00005000 vaddr 0x20000000 paddr 0x000039b8 align 2**12
         filesz 0x00000098 memsz 0x00000230 flags rw-
    LOAD off    0x00005700 vaddr 0x20000700 paddr 0x20000700 align 2**12
         filesz 0x00000000 memsz 0x00000100 flags rw-

Sections:
Idx Name          Size      VMA       LMA       File off  Algn
  0 .init         000000a0  00000000  00000000  00001000  2**2
                  CONTENTS, ALLOC, LOAD, READONLY, CODE
  1 .text         00003918  000000a0  000000a0  000010a0  2**2
                  CONTENTS, ALLOC, LOAD, READONLY, CODE
  2 .fini         00000000  000039b8  000039b8  00005098  2**0
                  CONTENTS, ALLOC, LOAD, CODE
  3 .dalign       00000000  20000000  20000000  00005098  2**0
                  CONTENTS
  4 .dlalign      00000000  000039b8  000039b8  00005098  2**0
                  CONTENTS
  5 .data         00000098  20000000  000039b8  00005000  2**2
                  CONTENTS, ALLOC, LOAD, DATA
  6 .bss          00000198  20000098  00003a50  00005098  2**2
                  ALLOC
  7 .stack        00000100  20000700  20000700  00005700  2**0
                  ALLOC
  8 .debug_info   0001c78a  00000000  00000000  00005098  2**0
                  CONTENTS, READONLY, DEBUGGING
  9 .debug_abbrev 000049d9  00000000  00000000  00021822  2**0
                  CONTENTS, READONLY, DEBUGGING
 10 .debug_loc    00007205  00000000  00000000  000261fb  2**0
                  CONTENTS, READONLY, DEBUGGING
 11 .debug_aranges 00000cc0  00000000  00000000  0002d400  2**3
                  CONTENTS, READONLY, DEBUGGING
 12 .debug_ranges 00000e10  00000000  00000000  0002e0c0  2**3
                  CONTENTS, READONLY, DEBUGGING
 13 .debug_line   00010d76  00000000  00000000  0002eed0  2**0
                  CONTENTS, READONLY, DEBUGGING
 14 .debug_str    00003df9  00000000  00000000  0003fc46  2**0
                  CONTENTS, READONLY, DEBUGGING
 15 .comment      00000033  00000000  00000000  00043a3f  2**0
                  CONTENTS, READONLY
 16 .debug_frame  00001d64  00000000  00000000  00043a74  2**2
                  CONTENTS, READONLY, DEBUGGING
SYMBOL TABLE:
00000000 l    d  .init	00000000 .init
000000a0 l    d  .text	00000000 .text
000039b8 l    d  .fini	00000000 .fini
20000000 l    d  .dalign	00000000 .dalign
000039b8 l    d  .dlalign	00000000 .dlalign
20000000 l    d  .data	00000000 .data
20000098 l    d  .bss	00000000 .bss
20000700 l    d  .stack	00000000 .stack
00000000 l    d  .debug_info	00000000 .debug_info
00000000 l    d  .debug_abbrev	00000000 .debug_abbrev
00000000 l    d  .debug_loc	00000000 .debug_loc
00000000 l    d  .debug_aranges	00000000 .debug_aranges
00000000 l    d  .debug_ranges	00000000 .debug_ranges
00000000 l    d  .debug_line	00000000 .debug_line
00000000 l    d  .debug_str	00000000 .debug_str
00000000 l    d  .comment	00000000 .comment
00000000 l    d  .debug_frame	00000000 .debug_frame
00000000 l    df *ABS*	00000000 GUI_Paint.c
00000294 l     F .text	000000a4 Paint_DrawPoint.part.0
00000000 l    df *ABS*	00000000 drive_screen.c
00000000 l    df *ABS*	00000000 page.c
20000022 l     O .data	00000001 needShowBattery.5131
0000379c l     O .text	00000006 CSWTCH.22
00000000 l    df *ABS*	00000000 screen_api.c
00000bd4 l     F .text	0000002c Screen_SendData_8Bit
000037c4 l     O .text	00000041 init_cmds
00000000 l    df *ABS*	00000000 encode.c
200001e0 l     O .bss	00000004 precircle.4144
200001e4 l     O .bss	00000001 precnt.4143
00000000 l    df *ABS*	00000000 adc.c
20000206 l     O .bss	00000001 percentage.4851
20000048 l     O .data	00000001 Prepercentage.4852
00000000 l    df *ABS*	00000000 ch32v00x_it.c
00000000 l    df *ABS*	00000000 main.c
00000000 l    df *ABS*	00000000 system_ch32v00x.c
00000000 l    df *ABS*	00000000 time_app.c
00000000 l    df *ABS*	00000000 ch32v00x_adc.c
00000000 l    df *ABS*	00000000 ch32v00x_dma.c
00000000 l    df *ABS*	00000000 ch32v00x_exti.c
00000000 l    df *ABS*	00000000 ch32v00x_gpio.c
00000000 l    df *ABS*	00000000 ch32v00x_iwdg.c
00000000 l    df *ABS*	00000000 ch32v00x_misc.c
00000000 l    df *ABS*	00000000 ch32v00x_rcc.c
20000070 l     O .data	00000014 ADCPrescTable
20000084 l     O .data	00000010 APBAHBPrescTable
00000000 l    df *ABS*	00000000 ch32v00x_spi.c
00000000 l    df *ABS*	00000000 ch32v00x_tim.c
0000236e l     F .text	0000005a TI1_Config
000023c8 l     F .text	00000070 TI2_Config
00000000 l    df *ABS*	00000000 ch32v00x_usart.c
00000000 l    df *ABS*	00000000 gpio.c
00000000 l    df *ABS*	00000000 debug.c
2000022c l     O .bss	00000002 p_ms
2000022e l     O .bss	00000001 p_us
00000000 l    df *ABS*	00000000 wchprintf.c
00000000 l    df *ABS*	00000000 strlen.c
00000000 l    df *ABS*	00000000 font12.c
00000000 l    df *ABS*	00000000 font16.c
00002e22  w    F .text	00000004 printDouble
0000261a g     F .text	00000016 TIM_TimeBaseStructInit
00000710 g     F .text	00000048 SPI_FullDuplex_Init
00001fb8 g     F .text	00000014 DMA_Cmd
00000a86 g     F .text	00000078 display_settings
00002e26  w    F .text	00000360 print
00003186  w    F .text	00000024 printf
20000898 g       .data	00000000 __global_pointer$
00001ff4 g     F .text	0000000a DMA_GetITStatus
00001cc4  w      .text	00000000 TIM1_CC_IRQHandler
00002b3e g     F .text	0000008e Check_Reset_Flag
0000235c g     F .text	00000004 SPI_I2S_SendData
0000169a g     F .text	0000000e HardFault_Handler
200000b4 g     O .bss	00000001 dmaXpoint
00002d04  w    F .text	0000011a printInt
00001dd2 g     F .text	00000012 ADC_DMACmd
000026c6 g     F .text	0000000e TIM_OC1PreloadConfig
00001cc4  w      .text	00000000 SysTick_Handler
00001df6 g     F .text	0000000a ADC_StartCalibration
0000216a g     F .text	00000054 NVIC_Init
00001cc4  w      .text	00000000 PVD_IRQHandler
00002360 g     F .text	00000004 SPI_I2S_ReceiveData
0000168c g     F .text	0000000e NMI_Handler
00003548 g     O .text	00000042 Font16_battery
00002880 g     F .text	0000000a USART_GetFlagStatus
20000208 g     O .bss	00000002 Battery_ADC_Average
20000024 g     O .data	00000024 settings
20000098 g       .bss	00000000 _sbss
00000100 g       *ABS*	00000000 __stack_size
000029e6 g     F .text	0000005c USART_Printf_Init
00001f80 g     F .text	00000038 DMA_Init
000000aa g     F .text	0000000a .hidden __riscv_restore_2
200000b0 g     O .bss	00000004 dmaFont
00002136 g     F .text	00000008 IWDG_SetReload
00002648 g     F .text	00000016 TIM_CtrlPWMOutputs
00001dc2 g     F .text	00000010 ADC_Cmd
20000021 g     O .data	00000001 led_light
00002e1e  w    F .text	00000004 printLongLongInt
00002630 g     F .text	00000018 TIM_Cmd
000031aa g     F .text	0000004a puts
200000b5 g     O .bss	00000001 dmaYpoint
2000006c g     O .data	00000004 SystemCoreClock
00002764 g     F .text	0000000c TIM_ClearFlag
000000d4 g     F .text	0000002c .hidden __udivsi3
000000a0 g       .init	00000000 _einit
00002788 g     F .text	0000000c TIM_ClearITPendingBit
000022a4 g     F .text	0000001e RCC_APB2PeriphClockCmd
00002098 g     F .text	0000007c GPIO_Init
000021d0 g     F .text	00000014 RCC_ADCCLKConfig
20000224 g     O .bss	00000001 needSleep
20000228 g     O .bss	00000004 NVIC_Priority_Group
00001cc4  w      .text	00000000 SPI1_IRQHandler
00001de4 g     F .text	0000000a ADC_ResetCalibration
00002862 g     F .text	00000016 USART_Cmd
00000c00 g     F .text	0000002c Screen_SendCommand
20000218 g     O .bss	00000001 dmaTransferComplete
000000a0 g     F .text	0000000a .hidden __riscv_save_1
00001eda g     F .text	00000014 ADC_Calibration_Vol
00000648 g     F .text	000000c8 Paint_DrawString
20000008 g     O .data	00000008 Font16_Bat
000000aa g     F .text	0000000a .hidden __riscv_restore_0
00001910 g     F .text	00000016 AWU_IRQHandler
00002586 g     F .text	00000094 TIM_OC3Init
000017ae g     F .text	0000010e EXTI7_0_IRQHandler
00000916 g     F .text	00000170 draw_setting
20000000 g     O .data	00000008 Fontline
00003264 g     O .text	00000144 Font12_English
00001ffe g     F .text	00000008 DMA_ClearITPendingBit
200000bf g     O .bss	00000001 dmaYoffset
000011a8 g     F .text	000000a4 get_battery_percentage
000022c2 g     F .text	0000001e RCC_APB1PeriphClockCmd
00000c2c g     F .text	00000014 Screen_ExitSleepMode
20000700 g       .stack	00000000 _heap_end
00002364 g     F .text	0000000a SPI_I2S_GetFlagStatus
0000085c g     F .text	0000001a LED_SetLight
00002286 g     F .text	0000001e RCC_AHBPeriphClockCmd
00001cc4  w      .text	00000000 DMA1_Channel4_IRQHandler
00001e20 g     F .text	000000ba ADC_RegularChannelConfig
00001cc4  w      .text	00000000 ADC1_IRQHandler
00003844 g     O .text	00000005 percent_points
0000213e g     F .text	0000000e IWDG_ReloadCounter
00001fde g     F .text	0000000e DMA_GetFlagStatus
0000208e g     F .text	0000000a EXTI_ClearITPendingBit
000016a8 g     F .text	00000096 EXTI_INT_INIT
00001e00 g     F .text	00000008 ADC_GetCalibrationStatus
20000230 g       .bss	00000000 _ebss
00001cc4  w      .text	00000000 DMA1_Channel7_IRQHandler
00002486 g     F .text	0000006a TIM_OC1Init
00001e08 g     F .text	00000018 ADC_SoftwareStartConvCmd
000026ea g     F .text	0000000e TIM_OC3PreloadConfig
00001dee g     F .text	00000008 ADC_GetResetCalibrationStatus
00000842 g     F .text	0000001a FAN_SetSpeed
00002978 g     F .text	00000034 Delay_Init
20000010 g     O .data	00000008 Font16_En
00000c82 g     F .text	000000d8 Screen_Init
0000211e g     F .text	00000004 GPIO_SetBits
000026ac g     F .text	0000001a TIM_ARRPreloadConfig
20000098 g     O .bss	00000018 Paint
00000100 g     F .text	00000008 .hidden __umodsi3
2000020c g     O .bss	00000004 SleepCounter
000033a8 g     O .text	000001a0 Font16_Number
00001cc4  w      .text	00000000 I2C1_EV_IRQHandler
20000226 g     O .bss	00000002 pre_Battery_ADC_Average
00002770 g     F .text	00000018 TIM_GetITStatus
00000758 g     F .text	0000007a SPI_DMA_Tx_Init
000021e4 g     F .text	000000a2 RCC_GetClocksFreq
00001cc4  w      .text	00000000 DMA1_Channel6_IRQHandler
20000214 g     O .bss	00000004 circle
00002794 g     F .text	000000ce USART_Init
20000020 g     O .data	00000001 fan_speed
00001cc4  w      .text	00000000 RCC_IRQHandler
00001b1e g     F .text	000000ea TIM1_Init
200000be g     O .bss	00000001 dmaXoffset
00001618 g     F .text	00000006 refresh_SleepCounter
00001cc4  w      .text	00000000 TIM1_TRG_COM_IRQHandler
200000c0 g     O .bss	00000120 lcd_gram
0000163a g     F .text	00000052 DMA1_Channel1_IRQHandler
00002126 g     F .text	00000008 IWDG_WriteAccessCmd
00000000 g       .init	00000000 _start
2000005c g     O .data	00000010 AHBPrescTable
000026d4 g     F .text	00000016 TIM_OC2PreloadConfig
00002c16  w    F .text	000000ee prints
0000265e g     F .text	00000012 TIM_ITConfig
000024f0 g     F .text	00000096 TIM_OC2Init
0000214c g     F .text	00000018 IWDG_Enable
20000023 g     O .data	00000001 refreshState
00002006 g     F .text	0000006a EXTI_Init
00000224 g     F .text	00000070 Paint_SetPixel
000000b4 g     F .text	00000014 .hidden __mulsi3
200000b6 g     O .bss	00000001 current_setting
00002122 g     F .text	00000004 GPIO_ResetBits
20000000 g       .dalign	00000000 _data_vma
00000bb6 g     F .text	0000001e show_page
000026fc g     F .text	00000016 TIM_SetIC1Prescaler
00002070 g     F .text	0000001e EXTI_GetITStatus
0000014a g     F .text	000000a8 memset
0000124c g     F .text	00000082 DMA_Tx_Init
000021be g     F .text	00000012 RCC_AdjustHSICalibrationValue
200001e8 g     O .bss	0000001e BattaryBuf
00000338 g     F .text	0000010e Paint_DrawLine
00001926 g     F .text	000000a6 main
00001c9c g     F .text	00000028 IWDG_Feed_Init
000001f2 g     F .text	00000032 Paint_NewImage
0000234a g     F .text	00000012 SPI_I2S_DMACmd
00000876 g     F .text	000000a0 update_current_setting
2000004c g     O .data	00000010 key
00001cc4  w      .text	00000000 DMA1_Channel5_IRQHandler
000026f8 g     F .text	00000004 TIM_SetCounter
000029ac g     F .text	0000003a Delay_Ms
000000cc g     F .text	00000058 .hidden __divsi3
00002330 g     F .text	0000001a SPI_Cmd
000019cc g     F .text	000000e6 SystemInit
0000272c g     F .text	00000038 TIM_ICInit
00002bcc  w    F .text	0000004a printchar
00000f4a g     F .text	0000010c LCD_Refrsh_DMA
00000000 g       .init	00000000 _sinit
20000018 g     O .data	00000008 Font16_Num
00002a92 g     F .text	000000ac intToStr
0000161e g     F .text	0000001c DMA1_Channel3_IRQHandler
00000f1c g     F .text	0000002e LCD_SHOW_API_INIT
000018bc g     F .text	00000054 TIM1_UP_IRQHandler
2000021c g     O .bss	00000008 encode_struct
00001cc4  w      .text	00000000 WWDG_IRQHandler
0000378c g     O .text	00000010 Font16_english_map
00001fcc g     F .text	00000012 DMA_ITConfig
000015cc g     F .text	0000004c TIM2_IRQHandler
20000800 g       .stack	00000000 _eusrstack
00000c40 g     F .text	00000042 LCD_Drive_Init
000000a0 g     F .text	0000000a .hidden __riscv_save_2
00001cc4  w      .text	00000000 SW_Handler
00001d4e g     F .text	00000026 ADC_DeInit
00001cc4  w      .text	00000000 TIM1_BRK_IRQHandler
00001d74 g     F .text	0000004e ADC_Init
00002878 g     F .text	00000008 USART_SendData
00000446 g     F .text	00000072 Paint_DrawRectangle
00002a42 g     F .text	00000050 _write
00000afe g     F .text	00000090 handle_setting_event
20000098 g       .data	00000000 _edata
20000230 g       .bss	00000000 _end
00002438 g     F .text	0000004e TIM_TimeBaseInit
000039b8 g       .dlalign	00000000 _data_lma
00000dd4 g     F .text	00000148 Screen_Clear
0000288a g     F .text	0000001e GPIO_Init_Pin
000012ce g     F .text	000000d2 Battery_Init
00001ab2 g     F .text	0000006c SystemCoreClockUpdate
00000124 g     F .text	00000024 .hidden __modsi3
00001cc4  w      .text	00000000 DMA1_Channel2_IRQHandler
0000173e g     F .text	00000070 system_wokeup
00000d5a g     F .text	0000007a Screen_SetWindows
200000b8 g     O .bss	00000006 LCD
00001fec g     F .text	00000008 DMA_ClearFlag
000028a8 g     F .text	000000d0 My_GPIO_Init
00001cc6  w      .text	00000000 handle_reset
0000212e g     F .text	00000008 IWDG_SetPrescaler
00001cc4  w      .text	00000000 FLASH_IRQHandler
000000a0 g     F .text	0000000a .hidden __riscv_save_0
00001c08 g     F .text	00000094 TIM2_Init
00001cc4  w      .text	00000000 USART1_IRQHandler
20000210 g     O .bss	00000004 charge
000031f4 g     F .text	00000012 strlen
00002712 g     F .text	0000001a TIM_SetIC2Prescaler
000013a0 g     F .text	0000022c show_battery
000007d2 g     F .text	00000070 Screen_spi_write
000022e0 g     F .text	0000001e RCC_APB2PeriphResetCmd
0000358c g     O .text	00000200 Font16_english
00001cc4  w      .text	00000000 I2C1_ER_IRQHandler
000022fe g     F .text	00000032 SPI_Init
00002164 g     F .text	00000006 NVIC_PriorityGroupConfig
00001eee g     F .text	00000092 DMA_DeInit
000010d0 g     F .text	000000d8 Encoder_Scan
00000b8e g     F .text	00000028 setting_page
000000aa g     F .text	0000000a .hidden __riscv_restore_1
00002670 g     F .text	0000003c TIM_EncoderInterfaceConfig
00001056 g     F .text	0000007a Screen_DrawPaint
00002114 g     F .text	0000000a GPIO_ReadInputDataBit
000004b8 g     F .text	00000190 Paint_DrawChar



Disassembly of section .init:

00000000 <_sinit>:
   0:	4c70106f          	j	1cc6 <handle_reset>
   4:	0000                	unimp
   6:	0000                	unimp
   8:	168c                	addi	a1,sp,864
   a:	0000                	unimp
   c:	169a                	slli	a3,a3,0x26
	...
  2e:	0000                	unimp
  30:	1cc4                	addi	s1,sp,628
  32:	0000                	unimp
  34:	0000                	unimp
  36:	0000                	unimp
  38:	1cc4                	addi	s1,sp,628
  3a:	0000                	unimp
  3c:	0000                	unimp
  3e:	0000                	unimp
  40:	1cc4                	addi	s1,sp,628
  42:	0000                	unimp
  44:	1cc4                	addi	s1,sp,628
  46:	0000                	unimp
  48:	1cc4                	addi	s1,sp,628
  4a:	0000                	unimp
  4c:	1cc4                	addi	s1,sp,628
  4e:	0000                	unimp
  50:	17ae                	slli	a5,a5,0x2b
  52:	0000                	unimp
  54:	1910                	addi	a2,sp,176
  56:	0000                	unimp
  58:	163a                	slli	a2,a2,0x2e
  5a:	0000                	unimp
  5c:	1cc4                	addi	s1,sp,628
  5e:	0000                	unimp
  60:	161e                	slli	a2,a2,0x27
  62:	0000                	unimp
  64:	1cc4                	addi	s1,sp,628
  66:	0000                	unimp
  68:	1cc4                	addi	s1,sp,628
  6a:	0000                	unimp
  6c:	1cc4                	addi	s1,sp,628
  6e:	0000                	unimp
  70:	1cc4                	addi	s1,sp,628
  72:	0000                	unimp
  74:	1cc4                	addi	s1,sp,628
  76:	0000                	unimp
  78:	1cc4                	addi	s1,sp,628
  7a:	0000                	unimp
  7c:	1cc4                	addi	s1,sp,628
  7e:	0000                	unimp
  80:	1cc4                	addi	s1,sp,628
  82:	0000                	unimp
  84:	1cc4                	addi	s1,sp,628
  86:	0000                	unimp
  88:	1cc4                	addi	s1,sp,628
  8a:	0000                	unimp
  8c:	18bc                	addi	a5,sp,120
  8e:	0000                	unimp
  90:	1cc4                	addi	s1,sp,628
  92:	0000                	unimp
  94:	1cc4                	addi	s1,sp,628
  96:	0000                	unimp
  98:	15cc                	addi	a1,sp,740
  9a:	0000                	unimp
  9c:	0000                	unimp
	...

Disassembly of section .text:

000000a0 <__riscv_save_0>:
      a0:	1151                	addi	sp,sp,-12
      a2:	c026                	sw	s1,0(sp)
      a4:	c222                	sw	s0,4(sp)
      a6:	c406                	sw	ra,8(sp)
      a8:	8282                	jr	t0

000000aa <__riscv_restore_0>:
      aa:	4482                	lw	s1,0(sp)
      ac:	4412                	lw	s0,4(sp)
      ae:	40a2                	lw	ra,8(sp)
      b0:	0131                	addi	sp,sp,12
      b2:	8082                	ret

000000b4 <__mulsi3>:
      b4:	862a                	mv	a2,a0
      b6:	4501                	li	a0,0
      b8:	0015f693          	andi	a3,a1,1
      bc:	c291                	beqz	a3,c0 <__mulsi3+0xc>
      be:	9532                	add	a0,a0,a2
      c0:	8185                	srli	a1,a1,0x1
      c2:	0606                	slli	a2,a2,0x1
      c4:	f9f5                	bnez	a1,b8 <__mulsi3+0x4>
      c6:	8082                	ret
      c8:	0000                	unimp
	...

000000cc <__divsi3>:
      cc:	02054e63          	bltz	a0,108 <__umodsi3+0x8>
      d0:	0405c363          	bltz	a1,116 <__umodsi3+0x16>

000000d4 <__udivsi3>:
      d4:	862e                	mv	a2,a1
      d6:	85aa                	mv	a1,a0
      d8:	557d                	li	a0,-1
      da:	c215                	beqz	a2,fe <__udivsi3+0x2a>
      dc:	4685                	li	a3,1
      de:	00b67863          	bgeu	a2,a1,ee <__udivsi3+0x1a>
      e2:	00c05663          	blez	a2,ee <__udivsi3+0x1a>
      e6:	0606                	slli	a2,a2,0x1
      e8:	0686                	slli	a3,a3,0x1
      ea:	feb66ce3          	bltu	a2,a1,e2 <__udivsi3+0xe>
      ee:	4501                	li	a0,0
      f0:	00c5e463          	bltu	a1,a2,f8 <__udivsi3+0x24>
      f4:	8d91                	sub	a1,a1,a2
      f6:	8d55                	or	a0,a0,a3
      f8:	8285                	srli	a3,a3,0x1
      fa:	8205                	srli	a2,a2,0x1
      fc:	faf5                	bnez	a3,f0 <__udivsi3+0x1c>
      fe:	8082                	ret

00000100 <__umodsi3>:
     100:	8286                	mv	t0,ra
     102:	3fc9                	jal	d4 <__udivsi3>
     104:	852e                	mv	a0,a1
     106:	8282                	jr	t0
     108:	40a00533          	neg	a0,a0
     10c:	0005d763          	bgez	a1,11a <__umodsi3+0x1a>
     110:	40b005b3          	neg	a1,a1
     114:	b7c1                	j	d4 <__udivsi3>
     116:	40b005b3          	neg	a1,a1
     11a:	8286                	mv	t0,ra
     11c:	3f65                	jal	d4 <__udivsi3>
     11e:	40a00533          	neg	a0,a0
     122:	8282                	jr	t0

00000124 <__modsi3>:
     124:	8286                	mv	t0,ra
     126:	0005c763          	bltz	a1,134 <__modsi3+0x10>
     12a:	00054963          	bltz	a0,13c <__modsi3+0x18>
     12e:	375d                	jal	d4 <__udivsi3>
     130:	852e                	mv	a0,a1
     132:	8282                	jr	t0
     134:	40b005b3          	neg	a1,a1
     138:	fe055be3          	bgez	a0,12e <__modsi3+0xa>
     13c:	40a00533          	neg	a0,a0
     140:	3f51                	jal	d4 <__udivsi3>
     142:	40b00533          	neg	a0,a1
     146:	8282                	jr	t0
	...

0000014a <memset>:
     14a:	433d                	li	t1,15
     14c:	872a                	mv	a4,a0
     14e:	02c37363          	bgeu	t1,a2,174 <memset+0x2a>
     152:	00f77793          	andi	a5,a4,15
     156:	efbd                	bnez	a5,1d4 <memset+0x8a>
     158:	e5ad                	bnez	a1,1c2 <memset+0x78>
     15a:	ff067693          	andi	a3,a2,-16
     15e:	8a3d                	andi	a2,a2,15
     160:	96ba                	add	a3,a3,a4
     162:	c30c                	sw	a1,0(a4)
     164:	c34c                	sw	a1,4(a4)
     166:	c70c                	sw	a1,8(a4)
     168:	c74c                	sw	a1,12(a4)
     16a:	0741                	addi	a4,a4,16
     16c:	fed76be3          	bltu	a4,a3,162 <memset+0x18>
     170:	e211                	bnez	a2,174 <memset+0x2a>
     172:	8082                	ret
     174:	40c306b3          	sub	a3,t1,a2
     178:	068a                	slli	a3,a3,0x2
     17a:	00000297          	auipc	t0,0x0
     17e:	9696                	add	a3,a3,t0
     180:	00a68067          	jr	10(a3)
     184:	00b70723          	sb	a1,14(a4)
     188:	00b706a3          	sb	a1,13(a4)
     18c:	00b70623          	sb	a1,12(a4)
     190:	00b705a3          	sb	a1,11(a4)
     194:	00b70523          	sb	a1,10(a4)
     198:	00b704a3          	sb	a1,9(a4)
     19c:	00b70423          	sb	a1,8(a4)
     1a0:	00b703a3          	sb	a1,7(a4)
     1a4:	00b70323          	sb	a1,6(a4)
     1a8:	00b702a3          	sb	a1,5(a4)
     1ac:	00b70223          	sb	a1,4(a4)
     1b0:	00b701a3          	sb	a1,3(a4)
     1b4:	00b70123          	sb	a1,2(a4)
     1b8:	00b700a3          	sb	a1,1(a4)
     1bc:	00b70023          	sb	a1,0(a4)
     1c0:	8082                	ret
     1c2:	0ff5f593          	andi	a1,a1,255
     1c6:	00859693          	slli	a3,a1,0x8
     1ca:	8dd5                	or	a1,a1,a3
     1cc:	01059693          	slli	a3,a1,0x10
     1d0:	8dd5                	or	a1,a1,a3
     1d2:	b761                	j	15a <memset+0x10>
     1d4:	00279693          	slli	a3,a5,0x2
     1d8:	00000297          	auipc	t0,0x0
     1dc:	9696                	add	a3,a3,t0
     1de:	8286                	mv	t0,ra
     1e0:	fa8680e7          	jalr	-88(a3)
     1e4:	8096                	mv	ra,t0
     1e6:	17c1                	addi	a5,a5,-16
     1e8:	8f1d                	sub	a4,a4,a5
     1ea:	963e                	add	a2,a2,a5
     1ec:	f8c374e3          	bgeu	t1,a2,174 <memset+0x2a>
     1f0:	b7a5                	j	158 <memset+0xe>

000001f2 <Paint_NewImage>:
     1f2:	20000737          	lui	a4,0x20000
     1f6:	09870793          	addi	a5,a4,152 # 20000098 <_edata>
     1fa:	a78a                	sh	a0,8(a5)
     1fc:	a7ae                	sh	a1,10(a5)
     1fe:	a7d6                	sh	a3,12(a5)
     200:	abaa                	sh	a0,18(a5)
     202:	abce                	sh	a1,20(a5)
     204:	a7f2                	sh	a2,14(a5)
     206:	00079823          	sh	zero,16(a5)
     20a:	09870713          	addi	a4,a4,152
     20e:	c609                	beqz	a2,218 <Paint_NewImage+0x26>
     210:	0b400693          	li	a3,180
     214:	00d61563          	bne	a2,a3,21e <Paint_NewImage+0x2c>
     218:	a34a                	sh	a0,4(a4)
     21a:	a36e                	sh	a1,6(a4)
     21c:	8082                	ret
     21e:	a3ce                	sh	a1,4(a5)
     220:	a3ea                	sh	a0,6(a5)
     222:	8082                	ret

00000224 <Paint_SetPixel>:
     224:	200007b7          	lui	a5,0x20000
     228:	09878793          	addi	a5,a5,152 # 20000098 <_edata>
     22c:	27fa                	lhu	a4,14(a5)
     22e:	05a00693          	li	a3,90
     232:	0742                	slli	a4,a4,0x10
     234:	8341                	srli	a4,a4,0x10
     236:	00d70f63          	beq	a4,a3,254 <Paint_SetPixel+0x30>
     23a:	00e6e463          	bltu	a3,a4,242 <Paint_SetPixel+0x1e>
     23e:	c315                	beqz	a4,262 <Paint_SetPixel+0x3e>
     240:	8082                	ret
     242:	0b400693          	li	a3,180
     246:	02d70363          	beq	a4,a3,26c <Paint_SetPixel+0x48>
     24a:	10e00693          	li	a3,270
     24e:	02d70c63          	beq	a4,a3,286 <Paint_SetPixel+0x62>
     252:	8082                	ret
     254:	279e                	lhu	a5,8(a5)
     256:	17fd                	addi	a5,a5,-1
     258:	8f8d                	sub	a5,a5,a1
     25a:	85aa                	mv	a1,a0
     25c:	01079513          	slli	a0,a5,0x10
     260:	8141                	srli	a0,a0,0x10
     262:	e3fff2ef          	jal	t0,a0 <__riscv_save_0>
     266:	5f1000ef          	jal	ra,1056 <Screen_DrawPaint>
     26a:	b581                	j	aa <__riscv_restore_0>
     26c:	279a                	lhu	a4,8(a5)
     26e:	27be                	lhu	a5,10(a5)
     270:	177d                	addi	a4,a4,-1
     272:	40a70533          	sub	a0,a4,a0
     276:	17fd                	addi	a5,a5,-1
     278:	0542                	slli	a0,a0,0x10
     27a:	40b785b3          	sub	a1,a5,a1
     27e:	8141                	srli	a0,a0,0x10
     280:	05c2                	slli	a1,a1,0x10
     282:	81c1                	srli	a1,a1,0x10
     284:	bff9                	j	262 <Paint_SetPixel+0x3e>
     286:	27be                	lhu	a5,10(a5)
     288:	17fd                	addi	a5,a5,-1
     28a:	8f89                	sub	a5,a5,a0
     28c:	852e                	mv	a0,a1
     28e:	01079593          	slli	a1,a5,0x10
     292:	bfc5                	j	282 <Paint_SetPixel+0x5e>

00000294 <Paint_DrawPoint.part.0>:
     294:	e0dff2ef          	jal	t0,a0 <__riscv_save_0>
     298:	00169713          	slli	a4,a3,0x1
     29c:	06c2                	slli	a3,a3,0x10
     29e:	82c1                	srli	a3,a3,0x10
     2a0:	00150493          	addi	s1,a0,1
     2a4:	8c95                	sub	s1,s1,a3
     2a6:	04c2                	slli	s1,s1,0x10
     2a8:	82b2                	mv	t0,a2
     2aa:	1121                	addi	sp,sp,-24
     2ac:	832e                	mv	t1,a1
     2ae:	177d                	addi	a4,a4,-1
     2b0:	80c1                	srli	s1,s1,0x10
     2b2:	4601                	li	a2,0
     2b4:	08e67063          	bgeu	a2,a4,334 <Paint_DrawPoint.part.0+0xa0>
     2b8:	00130413          	addi	s0,t1,1
     2bc:	8c15                	sub	s0,s0,a3
     2be:	0642                	slli	a2,a2,0x10
     2c0:	0442                	slli	s0,s0,0x10
     2c2:	8241                	srli	a2,a2,0x10
     2c4:	8041                	srli	s0,s0,0x10
     2c6:	4781                	li	a5,0
     2c8:	c032                	sw	a2,0(sp)
     2ca:	a891                	j	31e <Paint_DrawPoint.part.0+0x8a>
     2cc:	01049513          	slli	a0,s1,0x10
     2d0:	8541                	srai	a0,a0,0x10
     2d2:	04054063          	bltz	a0,312 <Paint_DrawPoint.part.0+0x7e>
     2d6:	01041613          	slli	a2,s0,0x10
     2da:	8641                	srai	a2,a2,0x10
     2dc:	02064b63          	bltz	a2,312 <Paint_DrawPoint.part.0+0x7e>
     2e0:	200005b7          	lui	a1,0x20000
     2e4:	09858593          	addi	a1,a1,152 # 20000098 <_edata>
     2e8:	0045d383          	lhu	t2,4(a1)
     2ec:	02755363          	bge	a0,t2,312 <Paint_DrawPoint.part.0+0x7e>
     2f0:	21ee                	lhu	a1,6(a1)
     2f2:	02b65063          	bge	a2,a1,312 <Paint_DrawPoint.part.0+0x7e>
     2f6:	8616                	mv	a2,t0
     2f8:	85a2                	mv	a1,s0
     2fa:	8526                	mv	a0,s1
     2fc:	ca1a                	sw	t1,20(sp)
     2fe:	c836                	sw	a3,16(sp)
     300:	c63e                	sw	a5,12(sp)
     302:	c43a                	sw	a4,8(sp)
     304:	c216                	sw	t0,4(sp)
     306:	3f39                	jal	224 <Paint_SetPixel>
     308:	4352                	lw	t1,20(sp)
     30a:	46c2                	lw	a3,16(sp)
     30c:	47b2                	lw	a5,12(sp)
     30e:	4722                	lw	a4,8(sp)
     310:	4292                	lw	t0,4(sp)
     312:	0785                	addi	a5,a5,1
     314:	0405                	addi	s0,s0,1
     316:	07c2                	slli	a5,a5,0x10
     318:	0442                	slli	s0,s0,0x10
     31a:	87c1                	srai	a5,a5,0x10
     31c:	8041                	srli	s0,s0,0x10
     31e:	fae7e7e3          	bltu	a5,a4,2cc <Paint_DrawPoint.part.0+0x38>
     322:	4782                	lw	a5,0(sp)
     324:	0485                	addi	s1,s1,1
     326:	04c2                	slli	s1,s1,0x10
     328:	00178613          	addi	a2,a5,1
     32c:	0642                	slli	a2,a2,0x10
     32e:	80c1                	srli	s1,s1,0x10
     330:	8641                	srai	a2,a2,0x10
     332:	b749                	j	2b4 <Paint_DrawPoint.part.0+0x20>
     334:	0161                	addi	sp,sp,24
     336:	bb95                	j	aa <__riscv_restore_0>

00000338 <Paint_DrawLine>:
     338:	d69ff2ef          	jal	t0,a0 <__riscv_save_0>
     33c:	fd810113          	addi	sp,sp,-40
     340:	ce3e                	sw	a5,28(sp)
     342:	40a607b3          	sub	a5,a2,a0
     346:	cc3a                	sw	a4,24(sp)
     348:	41f7d713          	srai	a4,a5,0x1f
     34c:	8fb9                	xor	a5,a5,a4
     34e:	8f99                	sub	a5,a5,a4
     350:	07e2                	slli	a5,a5,0x18
     352:	87e1                	srai	a5,a5,0x18
     354:	40b68733          	sub	a4,a3,a1
     358:	c43e                	sw	a5,8(sp)
     35a:	41f75793          	srai	a5,a4,0x1f
     35e:	8f3d                	xor	a4,a4,a5
     360:	8f99                	sub	a5,a5,a4
     362:	07e2                	slli	a5,a5,0x18
     364:	87e1                	srai	a5,a5,0x18
     366:	c63e                	sw	a5,12(sp)
     368:	4785                	li	a5,1
     36a:	c032                	sw	a2,0(sp)
     36c:	c236                	sw	a3,4(sp)
     36e:	c83e                	sw	a5,16(sp)
     370:	82aa                	mv	t0,a0
     372:	842e                	mv	s0,a1
     374:	00c56463          	bltu	a0,a2,37c <Paint_DrawLine+0x44>
     378:	57fd                	li	a5,-1
     37a:	c83e                	sw	a5,16(sp)
     37c:	4785                	li	a5,1
     37e:	ca3e                	sw	a5,20(sp)
     380:	4792                	lw	a5,4(sp)
     382:	00f46463          	bltu	s0,a5,38a <Paint_DrawLine+0x52>
     386:	57fd                	li	a5,-1
     388:	ca3e                	sw	a5,20(sp)
     38a:	4732                	lw	a4,12(sp)
     38c:	47a2                	lw	a5,8(sp)
     38e:	4602                	lw	a2,0(sp)
     390:	00e784b3          	add	s1,a5,a4
     394:	80518e23          	sb	t0,-2020(gp) # 200000b4 <dmaXpoint>
     398:	80818ea3          	sb	s0,-2019(gp) # 200000b5 <dmaYpoint>
     39c:	20000737          	lui	a4,0x20000
     3a0:	00070713          	mv	a4,a4
     3a4:	80e1ac23          	sw	a4,-2024(gp) # 200000b0 <dmaFont>
     3a8:	4692                	lw	a3,4(sp)
     3aa:	8516                	mv	a0,t0
     3ac:	85a2                	mv	a1,s0
     3ae:	d016                	sw	t0,32(sp)
     3b0:	1ab000ef          	jal	ra,d5a <Screen_SetWindows>
     3b4:	5282                	lw	t0,32(sp)
     3b6:	4701                	li	a4,0
     3b8:	57d2                	lw	a5,52(sp)
     3ba:	0705                	addi	a4,a4,1
     3bc:	4685                	li	a3,1
     3be:	0ff77713          	andi	a4,a4,255
     3c2:	00d79c63          	bne	a5,a3,3da <Paint_DrawLine+0xa2>
     3c6:	853a                	mv	a0,a4
     3c8:	458d                	li	a1,3
     3ca:	d216                	sw	t0,36(sp)
     3cc:	d03a                	sw	a4,32(sp)
     3ce:	3b0d                	jal	100 <__umodsi3>
     3d0:	0ff57513          	andi	a0,a0,255
     3d4:	5702                	lw	a4,32(sp)
     3d6:	5292                	lw	t0,36(sp)
     3d8:	c911                	beqz	a0,3ec <Paint_DrawLine+0xb4>
     3da:	46f2                	lw	a3,28(sp)
     3dc:	4662                	lw	a2,24(sp)
     3de:	8516                	mv	a0,t0
     3e0:	85a2                	mv	a1,s0
     3e2:	d23a                	sw	a4,36(sp)
     3e4:	d016                	sw	t0,32(sp)
     3e6:	357d                	jal	294 <Paint_DrawPoint.part.0>
     3e8:	5712                	lw	a4,36(sp)
     3ea:	5282                	lw	t0,32(sp)
     3ec:	47b2                	lw	a5,12(sp)
     3ee:	00149693          	slli	a3,s1,0x1
     3f2:	00f6cf63          	blt	a3,a5,410 <Paint_DrawLine+0xd8>
     3f6:	4782                	lw	a5,0(sp)
     3f8:	04f28063          	beq	t0,a5,438 <Paint_DrawLine+0x100>
     3fc:	47b2                	lw	a5,12(sp)
     3fe:	97a6                	add	a5,a5,s1
     400:	01079493          	slli	s1,a5,0x10
     404:	47c2                	lw	a5,16(sp)
     406:	84c1                	srai	s1,s1,0x10
     408:	92be                	add	t0,t0,a5
     40a:	02c2                	slli	t0,t0,0x10
     40c:	0102d293          	srli	t0,t0,0x10
     410:	47a2                	lw	a5,8(sp)
     412:	00149693          	slli	a3,s1,0x1
     416:	fad7c1e3          	blt	a5,a3,3b8 <Paint_DrawLine+0x80>
     41a:	4792                	lw	a5,4(sp)
     41c:	00f40e63          	beq	s0,a5,438 <Paint_DrawLine+0x100>
     420:	47a2                	lw	a5,8(sp)
     422:	97a6                	add	a5,a5,s1
     424:	01079493          	slli	s1,a5,0x10
     428:	47d2                	lw	a5,20(sp)
     42a:	84c1                	srai	s1,s1,0x10
     42c:	00f40333          	add	t1,s0,a5
     430:	01031413          	slli	s0,t1,0x10
     434:	8041                	srli	s0,s0,0x10
     436:	b749                	j	3b8 <Paint_DrawLine+0x80>
     438:	00171513          	slli	a0,a4,0x1
     43c:	30f000ef          	jal	ra,f4a <LCD_Refrsh_DMA>
     440:	02810113          	addi	sp,sp,40
     444:	b19d                	j	aa <__riscv_restore_0>

00000446 <Paint_DrawRectangle>:
     446:	c5bff2ef          	jal	t0,a0 <__riscv_save_0>
     44a:	1131                	addi	sp,sp,-20
     44c:	c636                	sw	a3,12(sp)
     44e:	5682                	lw	a3,32(sp)
     450:	c22a                	sw	a0,4(sp)
     452:	c432                	sw	a2,8(sp)
     454:	c83a                	sw	a4,16(sp)
     456:	842e                	mv	s0,a1
     458:	84be                	mv	s1,a5
     45a:	eab1                	bnez	a3,4ae <Paint_DrawRectangle+0x68>
     45c:	86ae                	mv	a3,a1
     45e:	c002                	sw	zero,0(sp)
     460:	3de1                	jal	338 <Paint_DrawLine>
     462:	4612                	lw	a2,4(sp)
     464:	4742                	lw	a4,16(sp)
     466:	46b2                	lw	a3,12(sp)
     468:	87a6                	mv	a5,s1
     46a:	85a2                	mv	a1,s0
     46c:	8532                	mv	a0,a2
     46e:	c002                	sw	zero,0(sp)
     470:	35e1                	jal	338 <Paint_DrawLine>
     472:	4622                	lw	a2,8(sp)
     474:	4742                	lw	a4,16(sp)
     476:	46b2                	lw	a3,12(sp)
     478:	87a6                	mv	a5,s1
     47a:	85a2                	mv	a1,s0
     47c:	8532                	mv	a0,a2
     47e:	c002                	sw	zero,0(sp)
     480:	3d65                	jal	338 <Paint_DrawLine>
     482:	46b2                	lw	a3,12(sp)
     484:	4742                	lw	a4,16(sp)
     486:	4622                	lw	a2,8(sp)
     488:	4512                	lw	a0,4(sp)
     48a:	c002                	sw	zero,0(sp)
     48c:	87a6                	mv	a5,s1
     48e:	85b6                	mv	a1,a3
     490:	3565                	jal	338 <Paint_DrawLine>
     492:	a00d                	j	4b4 <Paint_DrawRectangle+0x6e>
     494:	4742                	lw	a4,16(sp)
     496:	4622                	lw	a2,8(sp)
     498:	4512                	lw	a0,4(sp)
     49a:	86a2                	mv	a3,s0
     49c:	85a2                	mv	a1,s0
     49e:	c002                	sw	zero,0(sp)
     4a0:	87a6                	mv	a5,s1
     4a2:	3d59                	jal	338 <Paint_DrawLine>
     4a4:	00140313          	addi	t1,s0,1
     4a8:	01031413          	slli	s0,t1,0x10
     4ac:	8041                	srli	s0,s0,0x10
     4ae:	47b2                	lw	a5,12(sp)
     4b0:	fe87f2e3          	bgeu	a5,s0,494 <Paint_DrawRectangle+0x4e>
     4b4:	0151                	addi	sp,sp,20
     4b6:	bed5                	j	aa <__riscv_restore_0>

000004b8 <Paint_DrawChar>:
     4b8:	be9ff2ef          	jal	t0,a0 <__riscv_save_0>
     4bc:	1101                	addi	sp,sp,-32
     4be:	c23a                	sw	a4,4(sp)
     4c0:	20000737          	lui	a4,0x20000
     4c4:	c02a                	sw	a0,0(sp)
     4c6:	c63e                	sw	a5,12(sp)
     4c8:	01070713          	addi	a4,a4,16 # 20000010 <Font16_En>
     4cc:	84ae                	mv	s1,a1
     4ce:	8436                	mv	s0,a3
     4d0:	04e69563          	bne	a3,a4,51a <Paint_DrawChar+0x62>
     4d4:	678d                	lui	a5,0x3
     4d6:	4581                	li	a1,0
     4d8:	78c78793          	addi	a5,a5,1932 # 378c <Font16_english_map>
     4dc:	46c1                	li	a3,16
     4de:	00f58533          	add	a0,a1,a5
     4e2:	2108                	lbu	a0,0(a0)
     4e4:	14c50863          	beq	a0,a2,634 <Paint_DrawChar+0x17c>
     4e8:	0585                	addi	a1,a1,1
     4ea:	fed59ae3          	bne	a1,a3,4de <Paint_DrawChar+0x26>
     4ee:	4501                	li	a0,0
     4f0:	200007b7          	lui	a5,0x20000
     4f4:	09878793          	addi	a5,a5,152 # 20000098 <_edata>
     4f8:	23da                	lhu	a4,4(a5)
     4fa:	4682                	lw	a3,0(sp)
     4fc:	00d76563          	bltu	a4,a3,506 <Paint_DrawChar+0x4e>
     500:	23fe                	lhu	a5,6(a5)
     502:	0297f763          	bgeu	a5,s1,530 <Paint_DrawChar+0x78>
     506:	4582                	lw	a1,0(sp)
     508:	00003537          	lui	a0,0x3
     50c:	8626                	mv	a2,s1
     50e:	20850513          	addi	a0,a0,520 # 3208 <strlen+0x14>
     512:	475020ef          	jal	ra,3186 <printf>
     516:	6105                	addi	sp,sp,32
     518:	be49                	j	aa <__riscv_restore_0>
     51a:	02c10503          	lb	a0,44(sp)
     51e:	22ee                	lhu	a1,6(a3)
     520:	40a60533          	sub	a0,a2,a0
     524:	3e41                	jal	b4 <__mulsi3>
     526:	204e                	lhu	a1,4(s0)
     528:	059d                	addi	a1,a1,7
     52a:	818d                	srli	a1,a1,0x3
     52c:	3661                	jal	b4 <__mulsi3>
     52e:	b7c9                	j	4f0 <Paint_DrawChar+0x38>
     530:	401c                	lw	a5,0(s0)
     532:	2072                	lhu	a2,6(s0)
     534:	204e                	lhu	a1,4(s0)
     536:	97aa                	add	a5,a5,a0
     538:	c43e                	sw	a5,8(sp)
     53a:	4782                	lw	a5,0(sp)
     53c:	fff48693          	addi	a3,s1,-1
     540:	96b2                	add	a3,a3,a2
     542:	fff78613          	addi	a2,a5,-1
     546:	962e                	add	a2,a2,a1
     548:	80f18e23          	sb	a5,-2020(gp) # 200000b4 <dmaXpoint>
     54c:	06c2                	slli	a3,a3,0x10
     54e:	0642                	slli	a2,a2,0x10
     550:	80918ea3          	sb	s1,-2019(gp) # 200000b5 <dmaYpoint>
     554:	82c1                	srli	a3,a3,0x10
     556:	853e                	mv	a0,a5
     558:	8241                	srli	a2,a2,0x10
     55a:	85a6                	mv	a1,s1
     55c:	8081ac23          	sw	s0,-2024(gp) # 200000b0 <dmaFont>
     560:	7fa000ef          	jal	ra,d5a <Screen_SetWindows>
     564:	81818793          	addi	a5,gp,-2024 # 200000b0 <dmaFont>
     568:	c83e                	sw	a5,16(sp)
     56a:	47a2                	lw	a5,8(sp)
     56c:	86a6                	mv	a3,s1
     56e:	40968733          	sub	a4,a3,s1
     572:	2072                	lhu	a2,6(s0)
     574:	0742                	slli	a4,a4,0x10
     576:	8341                	srli	a4,a4,0x10
     578:	0ac76c63          	bltu	a4,a2,630 <Paint_DrawChar+0x178>
     57c:	47c2                	lw	a5,16(sp)
     57e:	439c                	lw	a5,0(a5)
     580:	23ee                	lhu	a1,6(a5)
     582:	23ca                	lhu	a0,4(a5)
     584:	3e05                	jal	b4 <__mulsi3>
     586:	00151413          	slli	s0,a0,0x1
     58a:	47f00793          	li	a5,1151
     58e:	0087c563          	blt	a5,s0,598 <Paint_DrawChar+0xe0>
     592:	8522                	mv	a0,s0
     594:	1b7000ef          	jal	ra,f4a <LCD_Refrsh_DMA>
     598:	48000593          	li	a1,1152
     59c:	8522                	mv	a0,s0
     59e:	3659                	jal	124 <__modsi3>
     5a0:	d93d                	beqz	a0,516 <Paint_DrawChar+0x5e>
     5a2:	48000793          	li	a5,1152
     5a6:	f687d8e3          	bge	a5,s0,516 <Paint_DrawChar+0x5e>
     5aa:	1a1000ef          	jal	ra,f4a <LCD_Refrsh_DMA>
     5ae:	b7a5                	j	516 <Paint_DrawChar+0x5e>
     5b0:	00777613          	andi	a2,a4,7
     5b4:	00777593          	andi	a1,a4,7
     5b8:	c432                	sw	a2,8(sp)
     5ba:	08000613          	li	a2,128
     5be:	40b65633          	sra	a2,a2,a1
     5c2:	238c                	lbu	a1,0(a5)
     5c4:	8e6d                	and	a2,a2,a1
     5c6:	c229                	beqz	a2,608 <Paint_DrawChar+0x150>
     5c8:	ce3e                	sw	a5,28(sp)
     5ca:	4782                	lw	a5,0(sp)
     5cc:	4632                	lw	a2,12(sp)
     5ce:	85b6                	mv	a1,a3
     5d0:	00f70533          	add	a0,a4,a5
     5d4:	0542                	slli	a0,a0,0x10
     5d6:	8141                	srli	a0,a0,0x10
     5d8:	cc3a                	sw	a4,24(sp)
     5da:	ca36                	sw	a3,20(sp)
     5dc:	31a1                	jal	224 <Paint_SetPixel>
     5de:	46d2                	lw	a3,20(sp)
     5e0:	4762                	lw	a4,24(sp)
     5e2:	47f2                	lw	a5,28(sp)
     5e4:	45a2                	lw	a1,8(sp)
     5e6:	461d                	li	a2,7
     5e8:	00c59363          	bne	a1,a2,5ee <Paint_DrawChar+0x136>
     5ec:	0785                	addi	a5,a5,1
     5ee:	0705                	addi	a4,a4,1
     5f0:	0742                	slli	a4,a4,0x10
     5f2:	8341                	srli	a4,a4,0x10
     5f4:	2052                	lhu	a2,4(s0)
     5f6:	fac76de3          	bltu	a4,a2,5b0 <Paint_DrawChar+0xf8>
     5fa:	8a1d                	andi	a2,a2,7
     5fc:	c211                	beqz	a2,600 <Paint_DrawChar+0x148>
     5fe:	0785                	addi	a5,a5,1
     600:	0685                	addi	a3,a3,1
     602:	06c2                	slli	a3,a3,0x10
     604:	82c1                	srli	a3,a3,0x10
     606:	b7a5                	j	56e <Paint_DrawChar+0xb6>
     608:	4592                	lw	a1,4(sp)
     60a:	6641                	lui	a2,0x10
     60c:	167d                	addi	a2,a2,-1
     60e:	fcc58be3          	beq	a1,a2,5e4 <Paint_DrawChar+0x12c>
     612:	ce3e                	sw	a5,28(sp)
     614:	4782                	lw	a5,0(sp)
     616:	862e                	mv	a2,a1
     618:	85b6                	mv	a1,a3
     61a:	00f70533          	add	a0,a4,a5
     61e:	0542                	slli	a0,a0,0x10
     620:	8141                	srli	a0,a0,0x10
     622:	cc3a                	sw	a4,24(sp)
     624:	ca36                	sw	a3,20(sp)
     626:	3efd                	jal	224 <Paint_SetPixel>
     628:	47f2                	lw	a5,28(sp)
     62a:	4762                	lw	a4,24(sp)
     62c:	46d2                	lw	a3,20(sp)
     62e:	bf5d                	j	5e4 <Paint_DrawChar+0x12c>
     630:	4701                	li	a4,0
     632:	b7c9                	j	5f4 <Paint_DrawChar+0x13c>
     634:	235e                	lhu	a5,4(a4)
     636:	236a                	lhu	a0,6(a4)
     638:	079d                	addi	a5,a5,7
     63a:	878d                	srai	a5,a5,0x3
     63c:	c43e                	sw	a5,8(sp)
     63e:	3c9d                	jal	b4 <__mulsi3>
     640:	47a2                	lw	a5,8(sp)
     642:	85aa                	mv	a1,a0
     644:	853e                	mv	a0,a5
     646:	b5dd                	j	52c <Paint_DrawChar+0x74>

00000648 <Paint_DrawString>:
     648:	a59ff2ef          	jal	t0,a0 <__riscv_save_0>
     64c:	fd810113          	addi	sp,sp,-40
     650:	c63e                	sw	a5,12(sp)
     652:	03410783          	lb	a5,52(sp)
     656:	83aa                	mv	t2,a0
     658:	c22e                	sw	a1,4(sp)
     65a:	c83e                	sw	a5,16(sp)
     65c:	03815783          	lhu	a5,56(sp)
     660:	c432                	sw	a2,8(sp)
     662:	82b6                	mv	t0,a3
     664:	ca3a                	sw	a4,20(sp)
     666:	cc3e                	sw	a5,24(sp)
     668:	842e                	mv	s0,a1
     66a:	832a                	mv	t1,a0
     66c:	84b2                	mv	s1,a2
     66e:	00048603          	lb	a2,0(s1)
     672:	e601                	bnez	a2,67a <Paint_DrawString+0x32>
     674:	02810113          	addi	sp,sp,40
     678:	bc0d                	j	aa <__riscv_restore_0>
     67a:	200006b7          	lui	a3,0x20000
     67e:	09868793          	addi	a5,a3,152 # 20000098 <_edata>
     682:	0042d703          	lhu	a4,4(t0) # 1dc <memset+0x92>
     686:	23ce                	lhu	a1,4(a5)
     688:	09868693          	addi	a3,a3,152
     68c:	971a                	add	a4,a4,t1
     68e:	0062d783          	lhu	a5,6(t0)
     692:	00b74663          	blt	a4,a1,69e <Paint_DrawString+0x56>
     696:	943e                	add	s0,s0,a5
     698:	0442                	slli	s0,s0,0x10
     69a:	8041                	srli	s0,s0,0x10
     69c:	831e                	mv	t1,t2
     69e:	22fa                	lhu	a4,6(a3)
     6a0:	00f406b3          	add	a3,s0,a5
     6a4:	00d75463          	bge	a4,a3,6ac <Paint_DrawString+0x64>
     6a8:	4412                	lw	s0,4(sp)
     6aa:	831e                	mv	t1,t2
     6ac:	4731                	li	a4,12
     6ae:	04e79263          	bne	a5,a4,6f2 <Paint_DrawString+0xaa>
     6b2:	47a2                	lw	a5,8(sp)
     6b4:	4762                	lw	a4,24(sp)
     6b6:	40f487b3          	sub	a5,s1,a5
     6ba:	07c2                	slli	a5,a5,0x10
     6bc:	83c1                	srli	a5,a5,0x10
     6be:	02f71a63          	bne	a4,a5,6f2 <Paint_DrawString+0xaa>
     6c2:	47c2                	lw	a5,16(sp)
     6c4:	6741                	lui	a4,0x10
     6c6:	8696                	mv	a3,t0
     6c8:	c03e                	sw	a5,0(sp)
     6ca:	47b2                	lw	a5,12(sp)
     6cc:	851a                	mv	a0,t1
     6ce:	80070713          	addi	a4,a4,-2048 # f800 <_data_lma+0xbe48>
     6d2:	85a2                	mv	a1,s0
     6d4:	d21e                	sw	t2,36(sp)
     6d6:	d016                	sw	t0,32(sp)
     6d8:	ce1a                	sw	t1,28(sp)
     6da:	3bf9                	jal	4b8 <Paint_DrawChar>
     6dc:	4372                	lw	t1,28(sp)
     6de:	5282                	lw	t0,32(sp)
     6e0:	5392                	lw	t2,36(sp)
     6e2:	0042d783          	lhu	a5,4(t0)
     6e6:	0485                	addi	s1,s1,1
     6e8:	933e                	add	t1,t1,a5
     6ea:	0342                	slli	t1,t1,0x10
     6ec:	01035313          	srli	t1,t1,0x10
     6f0:	bfbd                	j	66e <Paint_DrawString+0x26>
     6f2:	47c2                	lw	a5,16(sp)
     6f4:	4752                	lw	a4,20(sp)
     6f6:	8696                	mv	a3,t0
     6f8:	c03e                	sw	a5,0(sp)
     6fa:	47b2                	lw	a5,12(sp)
     6fc:	851a                	mv	a0,t1
     6fe:	85a2                	mv	a1,s0
     700:	d21e                	sw	t2,36(sp)
     702:	d016                	sw	t0,32(sp)
     704:	ce1a                	sw	t1,28(sp)
     706:	3b4d                	jal	4b8 <Paint_DrawChar>
     708:	5392                	lw	t2,36(sp)
     70a:	5282                	lw	t0,32(sp)
     70c:	4372                	lw	t1,28(sp)
     70e:	bfd1                	j	6e2 <Paint_DrawString+0x9a>

00000710 <SPI_FullDuplex_Init>:
     710:	991ff2ef          	jal	t0,a0 <__riscv_save_0>
     714:	1131                	addi	sp,sp,-20
     716:	4585                	li	a1,1
     718:	6505                	lui	a0,0x1
     71a:	c002                	sw	zero,0(sp)
     71c:	c202                	sw	zero,4(sp)
     71e:	c402                	sw	zero,8(sp)
     720:	c602                	sw	zero,12(sp)
     722:	00011823          	sh	zero,16(sp)
     726:	37f010ef          	jal	ra,22a4 <RCC_APB2PeriphClockCmd>
     72a:	010407b7          	lui	a5,0x1040
     72e:	c03e                	sw	a5,0(sp)
     730:	020007b7          	lui	a5,0x2000
     734:	c43e                	sw	a5,8(sp)
     736:	47a1                	li	a5,8
     738:	c63e                	sw	a5,12(sp)
     73a:	858a                	mv	a1,sp
     73c:	479d                	li	a5,7
     73e:	40013537          	lui	a0,0x40013
     742:	80fc                	sh	a5,16(sp)
     744:	c202                	sw	zero,4(sp)
     746:	3b9010ef          	jal	ra,22fe <SPI_Init>
     74a:	4585                	li	a1,1
     74c:	40013537          	lui	a0,0x40013
     750:	3e1010ef          	jal	ra,2330 <SPI_Cmd>
     754:	0151                	addi	sp,sp,20
     756:	ba91                	j	aa <__riscv_restore_0>

00000758 <SPI_DMA_Tx_Init>:
     758:	949ff2ef          	jal	t0,a0 <__riscv_save_0>
     75c:	fbc10113          	addi	sp,sp,-68
     760:	842a                	mv	s0,a0
     762:	c62e                	sw	a1,12(sp)
     764:	84b2                	mv	s1,a2
     766:	4581                	li	a1,0
     768:	02c00613          	li	a2,44
     76c:	0828                	addi	a0,sp,24
     76e:	c436                	sw	a3,8(sp)
     770:	c23a                	sw	a4,4(sp)
     772:	c03e                	sw	a5,0(sp)
     774:	3ad9                	jal	14a <memset>
     776:	4585                	li	a1,1
     778:	4505                	li	a0,1
     77a:	30d010ef          	jal	ra,2286 <RCC_AHBPeriphClockCmd>
     77e:	8522                	mv	a0,s0
     780:	76e010ef          	jal	ra,1eee <DMA_DeInit>
     784:	4782                	lw	a5,0(sp)
     786:	4332                	lw	t1,12(sp)
     788:	46a2                	lw	a3,8(sp)
     78a:	4712                	lw	a4,4(sp)
     78c:	4641                	li	a2,16
     78e:	d63e                	sw	a5,44(sp)
     790:	082c                	addi	a1,sp,24
     792:	678d                	lui	a5,0x3
     794:	8522                	mv	a0,s0
     796:	cc1a                	sw	t1,24(sp)
     798:	d236                	sw	a3,36(sp)
     79a:	dc3a                	sw	a4,56(sp)
     79c:	de3e                	sw	a5,60(sp)
     79e:	ce26                	sw	s1,28(sp)
     7a0:	d032                	sw	a2,32(sp)
     7a2:	d402                	sw	zero,40(sp)
     7a4:	d802                	sw	zero,48(sp)
     7a6:	da02                	sw	zero,52(sp)
     7a8:	c082                	sw	zero,64(sp)
     7aa:	7d6010ef          	jal	ra,1f80 <DMA_Init>
     7ae:	4605                	li	a2,1
     7b0:	4589                	li	a1,2
     7b2:	8522                	mv	a0,s0
     7b4:	019010ef          	jal	ra,1fcc <DMA_ITConfig>
     7b8:	47e1                	li	a5,24
     7ba:	80fc                	sh	a5,16(sp)
     7bc:	0808                	addi	a0,sp,16
     7be:	4785                	li	a5,1
     7c0:	ca3e                	sw	a5,20(sp)
     7c2:	00010923          	sb	zero,18(sp)
     7c6:	1a5010ef          	jal	ra,216a <NVIC_Init>
     7ca:	04410113          	addi	sp,sp,68
     7ce:	8ddff06f          	j	aa <__riscv_restore_0>

000007d2 <Screen_spi_write>:
     7d2:	8cfff2ef          	jal	t0,a0 <__riscv_save_0>
     7d6:	84aa                	mv	s1,a0
     7d8:	4401                	li	s0,0
     7da:	4589                	li	a1,2
     7dc:	40013537          	lui	a0,0x40013
     7e0:	385010ef          	jal	ra,2364 <SPI_I2S_GetFlagStatus>
     7e4:	c11d                	beqz	a0,80a <Screen_spi_write+0x38>
     7e6:	85a6                	mv	a1,s1
     7e8:	40013537          	lui	a0,0x40013
     7ec:	371010ef          	jal	ra,235c <SPI_I2S_SendData>
     7f0:	4585                	li	a1,1
     7f2:	40013537          	lui	a0,0x40013
     7f6:	36f010ef          	jal	ra,2364 <SPI_I2S_GetFlagStatus>
     7fa:	c905                	beqz	a0,82a <Screen_spi_write+0x58>
     7fc:	40013537          	lui	a0,0x40013
     800:	361010ef          	jal	ra,2360 <SPI_I2S_ReceiveData>
     804:	0ff57513          	andi	a0,a0,255
     808:	a839                	j	826 <Screen_spi_write+0x54>
     80a:	0405                	addi	s0,s0,1
     80c:	0ff47413          	andi	s0,s0,255
     810:	0c900793          	li	a5,201
     814:	fcf413e3          	bne	s0,a5,7da <Screen_spi_write+0x8>
     818:	00003537          	lui	a0,0x3
     81c:	23c50513          	addi	a0,a0,572 # 323c <strlen+0x48>
     820:	18b020ef          	jal	ra,31aa <puts>
     824:	4501                	li	a0,0
     826:	885ff06f          	j	aa <__riscv_restore_0>
     82a:	0405                	addi	s0,s0,1
     82c:	0ff47413          	andi	s0,s0,255
     830:	0c900793          	li	a5,201
     834:	faf41ee3          	bne	s0,a5,7f0 <Screen_spi_write+0x1e>
     838:	00003537          	lui	a0,0x3
     83c:	25050513          	addi	a0,a0,592 # 3250 <strlen+0x5c>
     840:	b7c5                	j	820 <Screen_spi_write+0x4e>

00000842 <FAN_SetSpeed>:
     842:	06400713          	li	a4,100
     846:	0ff57793          	andi	a5,a0,255
     84a:	00a77463          	bgeu	a4,a0,852 <FAN_SetSpeed+0x10>
     84e:	06400793          	li	a5,100
     852:	40013737          	lui	a4,0x40013
     856:	c2f72c23          	sw	a5,-968(a4) # 40012c38 <__global_pointer$+0x200123a0>
     85a:	8082                	ret

0000085c <LED_SetLight>:
     85c:	06400713          	li	a4,100
     860:	0ff57793          	andi	a5,a0,255
     864:	00a77463          	bgeu	a4,a0,86c <LED_SetLight+0x10>
     868:	06400793          	li	a5,100
     86c:	40013737          	lui	a4,0x40013
     870:	c2f72a23          	sw	a5,-972(a4) # 40012c34 <__global_pointer$+0x2001239c>
     874:	8082                	ret

00000876 <update_current_setting>:
     876:	82bff2ef          	jal	t0,a0 <__riscv_save_0>
     87a:	81e1c783          	lbu	a5,-2018(gp) # 200000b6 <current_setting>
     87e:	4705                	li	a4,1
     880:	81e18413          	addi	s0,gp,-2018 # 200000b6 <current_setting>
     884:	04e78563          	beq	a5,a4,8ce <update_current_setting+0x58>
     888:	c785                	beqz	a5,8b0 <update_current_setting+0x3a>
     88a:	4709                	li	a4,2
     88c:	06e78363          	beq	a5,a4,8f2 <update_current_setting+0x7c>
     890:	2018                	lbu	a4,0(s0)
     892:	00171793          	slli	a5,a4,0x1
     896:	97ba                	add	a5,a5,a4
     898:	00279713          	slli	a4,a5,0x2
     89c:	200007b7          	lui	a5,0x20000
     8a0:	02478793          	addi	a5,a5,36 # 20000024 <settings>
     8a4:	97ba                	add	a5,a5,a4
     8a6:	479c                	lw	a5,8(a5)
     8a8:	c391                	beqz	a5,8ac <update_current_setting+0x36>
     8aa:	9782                	jalr	a5
     8ac:	ffeff06f          	j	aa <__riscv_restore_0>
     8b0:	06400793          	li	a5,100
     8b4:	00a7d963          	bge	a5,a0,8c6 <update_current_setting+0x50>
     8b8:	06400513          	li	a0,100
     8bc:	400137b7          	lui	a5,0x40013
     8c0:	c2a7ae23          	sw	a0,-964(a5) # 40012c3c <__global_pointer$+0x200123a4>
     8c4:	b7f1                	j	890 <update_current_setting+0x1a>
     8c6:	fe055be3          	bgez	a0,8bc <update_current_setting+0x46>
     8ca:	4501                	li	a0,0
     8cc:	bfc5                	j	8bc <update_current_setting+0x46>
     8ce:	06400793          	li	a5,100
     8d2:	00a7dc63          	bge	a5,a0,8ea <update_current_setting+0x74>
     8d6:	06400513          	li	a0,100
     8da:	0ff57513          	andi	a0,a0,255
     8de:	200007b7          	lui	a5,0x20000
     8e2:	02a78023          	sb	a0,32(a5) # 20000020 <fan_speed>
     8e6:	3fb1                	jal	842 <FAN_SetSpeed>
     8e8:	b765                	j	890 <update_current_setting+0x1a>
     8ea:	fe0558e3          	bgez	a0,8da <update_current_setting+0x64>
     8ee:	4501                	li	a0,0
     8f0:	b7ed                	j	8da <update_current_setting+0x64>
     8f2:	06400793          	li	a5,100
     8f6:	00a7dc63          	bge	a5,a0,90e <update_current_setting+0x98>
     8fa:	06400513          	li	a0,100
     8fe:	0ff57513          	andi	a0,a0,255
     902:	200007b7          	lui	a5,0x20000
     906:	02a780a3          	sb	a0,33(a5) # 20000021 <led_light>
     90a:	3f89                	jal	85c <LED_SetLight>
     90c:	b751                	j	890 <update_current_setting+0x1a>
     90e:	fe0558e3          	bgez	a0,8fe <update_current_setting+0x88>
     912:	4501                	li	a0,0
     914:	b7ed                	j	8fe <update_current_setting+0x88>

00000916 <draw_setting>:
     916:	f8aff2ef          	jal	t0,a0 <__riscv_save_0>
     91a:	1121                	addi	sp,sp,-24
     91c:	c432                	sw	a2,8(sp)
     91e:	82aa                	mv	t0,a0
     920:	7e000413          	li	s0,2016
     924:	e199                	bnez	a1,92a <draw_setting+0x14>
     926:	6441                	lui	s0,0x10
     928:	147d                	addi	s0,s0,-1
     92a:	4789                	li	a5,2
     92c:	00129713          	slli	a4,t0,0x1
     930:	1457e863          	bltu	a5,t0,a80 <draw_setting+0x16a>
     934:	678d                	lui	a5,0x3
     936:	79c78793          	addi	a5,a5,1948 # 379c <CSWTCH.22>
     93a:	97ba                	add	a5,a5,a4
     93c:	2396                	lhu	a3,0(a5)
     93e:	00329793          	slli	a5,t0,0x3
     942:	9796                	add	a5,a5,t0
     944:	0786                	slli	a5,a5,0x1
     946:	07d9                	addi	a5,a5,22
     948:	07c2                	slli	a5,a5,0x10
     94a:	83c1                	srli	a5,a5,0x10
     94c:	20000337          	lui	t1,0x20000
     950:	9716                	add	a4,a4,t0
     952:	c63e                	sw	a5,12(sp)
     954:	070a                	slli	a4,a4,0x2
     956:	02430793          	addi	a5,t1,36 # 20000024 <settings>
     95a:	973e                	add	a4,a4,a5
     95c:	4310                	lw	a2,0(a4)
     95e:	02430493          	addi	s1,t1,36
     962:	e191                	bnez	a1,966 <draw_setting+0x50>
     964:	8436                	mv	s0,a3
     966:	46a2                	lw	a3,8(sp)
     968:	45b2                	lw	a1,12(sp)
     96a:	3e700393          	li	t2,999
     96e:	06100793          	li	a5,97
     972:	c21e                	sw	t2,4(sp)
     974:	4701                	li	a4,0
     976:	c03e                	sw	a5,0(sp)
     978:	4501                	li	a0,0
     97a:	87a2                	mv	a5,s0
     97c:	c816                	sw	t0,16(sp)
     97e:	31e9                	jal	648 <Paint_DrawString>
     980:	42c2                	lw	t0,16(sp)
     982:	460d                	li	a2,3
     984:	084c                	addi	a1,sp,20
     986:	00129313          	slli	t1,t0,0x1
     98a:	9316                	add	t1,t1,t0
     98c:	030a                	slli	t1,t1,0x2
     98e:	949a                	add	s1,s1,t1
     990:	40dc                	lw	a5,4(s1)
     992:	2388                	lbu	a0,0(a5)
     994:	0fe020ef          	jal	ra,2a92 <intToStr>
     998:	4088                	lw	a0,0(s1)
     99a:	05b020ef          	jal	ra,31f4 <strlen>
     99e:	47a2                	lw	a5,8(sp)
     9a0:	00350593          	addi	a1,a0,3
     9a4:	23ca                	lhu	a0,4(a5)
     9a6:	f0eff0ef          	jal	ra,b4 <__mulsi3>
     9aa:	45b2                	lw	a1,12(sp)
     9ac:	3e700393          	li	t2,999
     9b0:	c21e                	sw	t2,4(sp)
     9b2:	03000793          	li	a5,48
     9b6:	200003b7          	lui	t2,0x20000
     9ba:	0542                	slli	a0,a0,0x10
     9bc:	01838693          	addi	a3,t2,24 # 20000018 <Font16_Num>
     9c0:	4701                	li	a4,0
     9c2:	0850                	addi	a2,sp,20
     9c4:	c03e                	sw	a5,0(sp)
     9c6:	8141                	srli	a0,a0,0x10
     9c8:	87a2                	mv	a5,s0
     9ca:	39bd                	jal	648 <Paint_DrawString>
     9cc:	4088                	lw	a0,0(s1)
     9ce:	027020ef          	jal	ra,31f4 <strlen>
     9d2:	47a2                	lw	a5,8(sp)
     9d4:	00350593          	addi	a1,a0,3
     9d8:	23ca                	lhu	a0,4(a5)
     9da:	edaff0ef          	jal	ra,b4 <__mulsi3>
     9de:	200003b7          	lui	t2,0x20000
     9e2:	01838393          	addi	t2,t2,24 # 20000018 <Font16_Num>
     9e6:	0043d703          	lhu	a4,4(t2)
     9ea:	46a2                	lw	a3,8(sp)
     9ec:	45b2                	lw	a1,12(sp)
     9ee:	00171793          	slli	a5,a4,0x1
     9f2:	97ba                	add	a5,a5,a4
     9f4:	953e                	add	a0,a0,a5
     9f6:	0542                	slli	a0,a0,0x10
     9f8:	87a2                	mv	a5,s0
     9fa:	4701                	li	a4,0
     9fc:	02500613          	li	a2,37
     a00:	8141                	srli	a0,a0,0x10
     a02:	c002                	sw	zero,0(sp)
     a04:	3c55                	jal	4b8 <Paint_DrawChar>
     a06:	40dc                	lw	a5,4(s1)
     a08:	42c2                	lw	t0,16(sp)
     a0a:	6721                	lui	a4,0x8
     a0c:	239c                	lbu	a5,0(a5)
     a0e:	bef70713          	addi	a4,a4,-1041 # 7bef <_data_lma+0x4237>
     a12:	c002                	sw	zero,0(sp)
     a14:	00179313          	slli	t1,a5,0x1
     a18:	933e                	add	t1,t1,a5
     a1a:	030a                	slli	t1,t1,0x2
     a1c:	40f30333          	sub	t1,t1,a5
     a20:	00329793          	slli	a5,t0,0x3
     a24:	92be                	add	t0,t0,a5
     a26:	0286                	slli	t0,t0,0x1
     a28:	02628293          	addi	t0,t0,38
     a2c:	02c2                	slli	t0,t0,0x10
     a2e:	0102d293          	srli	t0,t0,0x10
     a32:	00a28493          	addi	s1,t0,10
     a36:	04c2                	slli	s1,s1,0x10
     a38:	80c1                	srli	s1,s1,0x10
     a3a:	030e                	slli	t1,t1,0x3
     a3c:	4785                	li	a5,1
     a3e:	86a6                	mv	a3,s1
     a40:	06c00613          	li	a2,108
     a44:	8596                	mv	a1,t0
     a46:	4551                	li	a0,20
     a48:	c61a                	sw	t1,12(sp)
     a4a:	c416                	sw	t0,8(sp)
     a4c:	3aed                	jal	446 <Paint_DrawRectangle>
     a4e:	4332                	lw	t1,12(sp)
     a50:	06300793          	li	a5,99
     a54:	0267d363          	bge	a5,t1,a7a <draw_setting+0x164>
     a58:	06400593          	li	a1,100
     a5c:	851a                	mv	a0,t1
     a5e:	e6eff0ef          	jal	ra,cc <__divsi3>
     a62:	42a2                	lw	t0,8(sp)
     a64:	01450613          	addi	a2,a0,20
     a68:	4785                	li	a5,1
     a6a:	0642                	slli	a2,a2,0x10
     a6c:	c03e                	sw	a5,0(sp)
     a6e:	8722                	mv	a4,s0
     a70:	86a6                	mv	a3,s1
     a72:	8241                	srli	a2,a2,0x10
     a74:	8596                	mv	a1,t0
     a76:	4551                	li	a0,20
     a78:	32f9                	jal	446 <Paint_DrawRectangle>
     a7a:	0161                	addi	sp,sp,24
     a7c:	e2eff06f          	j	aa <__riscv_restore_0>
     a80:	66c1                	lui	a3,0x10
     a82:	16fd                	addi	a3,a3,-1
     a84:	bd6d                	j	93e <draw_setting+0x28>

00000a86 <display_settings>:
     a86:	e1aff2ef          	jal	t0,a0 <__riscv_save_0>
     a8a:	20000437          	lui	s0,0x20000
     a8e:	02344783          	lbu	a5,35(s0) # 20000023 <refreshState>
     a92:	1151                	addi	sp,sp,-12
     a94:	c3b5                	beqz	a5,af8 <display_settings+0x72>
     a96:	4701                	li	a4,0
     a98:	08000693          	li	a3,128
     a9c:	08000613          	li	a2,128
     aa0:	4581                	li	a1,0
     aa2:	84aa                	mv	s1,a0
     aa4:	4501                	li	a0,0
     aa6:	263d                	jal	dd4 <Screen_Clear>
     aa8:	3e700793          	li	a5,999
     aac:	c23e                	sw	a5,4(sp)
     aae:	06100793          	li	a5,97
     ab2:	c03e                	sw	a5,0(sp)
     ab4:	200006b7          	lui	a3,0x20000
     ab8:	67c1                	lui	a5,0x10
     aba:	00003637          	lui	a2,0x3
     abe:	17fd                	addi	a5,a5,-1
     ac0:	01068693          	addi	a3,a3,16 # 20000010 <Font16_En>
     ac4:	4701                	li	a4,0
     ac6:	7a460613          	addi	a2,a2,1956 # 37a4 <CSWTCH.22+0x8>
     aca:	4589                	li	a1,2
     acc:	02000513          	li	a0,32
     ad0:	3ea5                	jal	648 <Paint_DrawString>
     ad2:	02340413          	addi	s0,s0,35
     ad6:	4781                	li	a5,0
     ad8:	81e1c583          	lbu	a1,-2018(gp) # 200000b6 <current_setting>
     adc:	853e                	mv	a0,a5
     ade:	8626                	mv	a2,s1
     ae0:	8d9d                	sub	a1,a1,a5
     ae2:	0015b593          	seqz	a1,a1
     ae6:	c43e                	sw	a5,8(sp)
     ae8:	353d                	jal	916 <draw_setting>
     aea:	47a2                	lw	a5,8(sp)
     aec:	470d                	li	a4,3
     aee:	0785                	addi	a5,a5,1
     af0:	fee794e3          	bne	a5,a4,ad8 <display_settings+0x52>
     af4:	00040023          	sb	zero,0(s0)
     af8:	0131                	addi	sp,sp,12
     afa:	db0ff06f          	j	aa <__riscv_restore_0>

00000afe <handle_setting_event>:
     afe:	da2ff2ef          	jal	t0,a0 <__riscv_save_0>
     b02:	9841a403          	lw	s0,-1660(gp) # 2000021c <encode_struct>
     b06:	4485                	li	s1,1
     b08:	04941b63          	bne	s0,s1,b5e <handle_setting_event+0x60>
     b0c:	81e1c703          	lbu	a4,-2018(gp) # 200000b6 <current_setting>
     b10:	00171793          	slli	a5,a4,0x1
     b14:	97ba                	add	a5,a5,a4
     b16:	00279713          	slli	a4,a5,0x2
     b1a:	200007b7          	lui	a5,0x20000
     b1e:	02478793          	addi	a5,a5,36 # 20000024 <settings>
     b22:	97ba                	add	a5,a5,a4
     b24:	43dc                	lw	a5,4(a5)
     b26:	2388                	lbu	a0,0(a5)
     b28:	0515                	addi	a0,a0,5
     b2a:	33b1                	jal	876 <update_current_setting>
     b2c:	200007b7          	lui	a5,0x20000
     b30:	028781a3          	sb	s0,35(a5) # 20000023 <refreshState>
     b34:	200007b7          	lui	a5,0x20000
     b38:	0507a483          	lw	s1,80(a5) # 20000050 <key+0x4>
     b3c:	4785                	li	a5,1
     b3e:	00f49e63          	bne	s1,a5,b5a <handle_setting_event+0x5c>
     b42:	81e18413          	addi	s0,gp,-2018 # 200000b6 <current_setting>
     b46:	2008                	lbu	a0,0(s0)
     b48:	458d                	li	a1,3
     b4a:	0505                	addi	a0,a0,1
     b4c:	dd8ff0ef          	jal	ra,124 <__modsi3>
     b50:	200007b7          	lui	a5,0x20000
     b54:	a008                	sb	a0,0(s0)
     b56:	029781a3          	sb	s1,35(a5) # 20000023 <refreshState>
     b5a:	d50ff06f          	j	aa <__riscv_restore_0>
     b5e:	4789                	li	a5,2
     b60:	fcf41ae3          	bne	s0,a5,b34 <handle_setting_event+0x36>
     b64:	81e1c703          	lbu	a4,-2018(gp) # 200000b6 <current_setting>
     b68:	00171793          	slli	a5,a4,0x1
     b6c:	97ba                	add	a5,a5,a4
     b6e:	00279713          	slli	a4,a5,0x2
     b72:	200007b7          	lui	a5,0x20000
     b76:	02478793          	addi	a5,a5,36 # 20000024 <settings>
     b7a:	97ba                	add	a5,a5,a4
     b7c:	43dc                	lw	a5,4(a5)
     b7e:	2388                	lbu	a0,0(a5)
     b80:	156d                	addi	a0,a0,-5
     b82:	39d5                	jal	876 <update_current_setting>
     b84:	200007b7          	lui	a5,0x20000
     b88:	029781a3          	sb	s1,35(a5) # 20000023 <refreshState>
     b8c:	b765                	j	b34 <handle_setting_event+0x36>

00000b8e <setting_page>:
     b8e:	d12ff2ef          	jal	t0,a0 <__riscv_save_0>
     b92:	20000737          	lui	a4,0x20000
     b96:	66c1                	lui	a3,0x10
     b98:	842a                	mv	s0,a0
     b9a:	02270713          	addi	a4,a4,34 # 20000022 <needShowBattery.5131>
     b9e:	16fd                	addi	a3,a3,-1
     ba0:	4601                	li	a2,0
     ba2:	4589                	li	a1,2
     ba4:	05a00513          	li	a0,90
     ba8:	7f8000ef          	jal	ra,13a0 <show_battery>
     bac:	8522                	mv	a0,s0
     bae:	3de1                	jal	a86 <display_settings>
     bb0:	37b9                	jal	afe <handle_setting_event>
     bb2:	cf8ff06f          	j	aa <__riscv_restore_0>

00000bb6 <show_page>:
     bb6:	ceaff2ef          	jal	t0,a0 <__riscv_save_0>
     bba:	20000537          	lui	a0,0x20000
     bbe:	01050513          	addi	a0,a0,16 # 20000010 <Font16_En>
     bc2:	37f1                	jal	b8e <setting_page>
     bc4:	200007b7          	lui	a5,0x20000
     bc8:	0407a823          	sw	zero,80(a5) # 20000050 <key+0x4>
     bcc:	9801a223          	sw	zero,-1660(gp) # 2000021c <encode_struct>
     bd0:	cdaff06f          	j	aa <__riscv_restore_0>

00000bd4 <Screen_SendData_8Bit>:
     bd4:	cccff2ef          	jal	t0,a0 <__riscv_save_0>
     bd8:	842a                	mv	s0,a0
     bda:	4591                	li	a1,4
     bdc:	40011537          	lui	a0,0x40011
     be0:	53e010ef          	jal	ra,211e <GPIO_SetBits>
     be4:	45c1                	li	a1,16
     be6:	40011537          	lui	a0,0x40011
     bea:	538010ef          	jal	ra,2122 <GPIO_ResetBits>
     bee:	8522                	mv	a0,s0
     bf0:	36cd                	jal	7d2 <Screen_spi_write>
     bf2:	45c1                	li	a1,16
     bf4:	40011537          	lui	a0,0x40011
     bf8:	526010ef          	jal	ra,211e <GPIO_SetBits>
     bfc:	caeff06f          	j	aa <__riscv_restore_0>

00000c00 <Screen_SendCommand>:
     c00:	ca0ff2ef          	jal	t0,a0 <__riscv_save_0>
     c04:	842a                	mv	s0,a0
     c06:	4591                	li	a1,4
     c08:	40011537          	lui	a0,0x40011
     c0c:	516010ef          	jal	ra,2122 <GPIO_ResetBits>
     c10:	45c1                	li	a1,16
     c12:	40011537          	lui	a0,0x40011
     c16:	50c010ef          	jal	ra,2122 <GPIO_ResetBits>
     c1a:	8522                	mv	a0,s0
     c1c:	3e5d                	jal	7d2 <Screen_spi_write>
     c1e:	45c1                	li	a1,16
     c20:	40011537          	lui	a0,0x40011
     c24:	4fa010ef          	jal	ra,211e <GPIO_SetBits>
     c28:	c82ff06f          	j	aa <__riscv_restore_0>

00000c2c <Screen_ExitSleepMode>:
     c2c:	c74ff2ef          	jal	t0,a0 <__riscv_save_0>
     c30:	4545                	li	a0,17
     c32:	37f9                	jal	c00 <Screen_SendCommand>
     c34:	07800513          	li	a0,120
     c38:	575010ef          	jal	ra,29ac <Delay_Ms>
     c3c:	c6eff06f          	j	aa <__riscv_restore_0>

00000c40 <LCD_Drive_Init>:
     c40:	c60ff2ef          	jal	t0,a0 <__riscv_save_0>
     c44:	34f1                	jal	710 <SPI_FullDuplex_Init>
     c46:	40013537          	lui	a0,0x40013
     c4a:	4585                	li	a1,1
     c4c:	c0050513          	addi	a0,a0,-1024 # 40012c00 <__global_pointer$+0x20012368>
     c50:	1f9010ef          	jal	ra,2648 <TIM_CtrlPWMOutputs>
     c54:	4605                	li	a2,1
     c56:	4589                	li	a1,2
     c58:	40013537          	lui	a0,0x40013
     c5c:	6ee010ef          	jal	ra,234a <SPI_I2S_DMACmd>
     c60:	40020537          	lui	a0,0x40020
     c64:	4585                	li	a1,1
     c66:	03050513          	addi	a0,a0,48 # 40020030 <__global_pointer$+0x2001f798>
     c6a:	34e010ef          	jal	ra,1fb8 <DMA_Cmd>
     c6e:	e000e7b7          	lui	a5,0xe000e
     c72:	01000737          	lui	a4,0x1000
     c76:	10e7a023          	sw	a4,256(a5) # e000e100 <__global_pointer$+0xc000d868>
     c7a:	3f4d                	jal	c2c <Screen_ExitSleepMode>
     c7c:	4501                	li	a0,0
     c7e:	c2cff06f          	j	aa <__riscv_restore_0>

00000c82 <Screen_Init>:
     c82:	c1eff2ef          	jal	t0,a0 <__riscv_save_0>
     c86:	1161                	addi	sp,sp,-8
     c88:	4585                	li	a1,1
     c8a:	842a                	mv	s0,a0
     c8c:	40011537          	lui	a0,0x40011
     c90:	492010ef          	jal	ra,2122 <GPIO_ResetBits>
     c94:	4551                	li	a0,20
     c96:	517010ef          	jal	ra,29ac <Delay_Ms>
     c9a:	4585                	li	a1,1
     c9c:	40011537          	lui	a0,0x40011
     ca0:	47e010ef          	jal	ra,211e <GPIO_SetBits>
     ca4:	4551                	li	a0,20
     ca6:	507010ef          	jal	ra,29ac <Delay_Ms>
     caa:	00800737          	lui	a4,0x800
     cae:	82018793          	addi	a5,gp,-2016 # 200000b8 <LCD>
     cb2:	08070713          	addi	a4,a4,128 # 800080 <_data_lma+0x7fc6c8>
     cb6:	c398                	sw	a4,0(a5)
     cb8:	03600513          	li	a0,54
     cbc:	a3c0                	sb	s0,4(a5)
     cbe:	3789                	jal	c00 <Screen_SendCommand>
     cc0:	0c800513          	li	a0,200
     cc4:	3f01                	jal	bd4 <Screen_SendData_8Bit>
     cc6:	4701                	li	a4,0
     cc8:	648d                	lui	s1,0x3
     cca:	04000793          	li	a5,64
     cce:	0ff77413          	andi	s0,a4,255
     cd2:	00e7d563          	bge	a5,a4,cdc <Screen_Init+0x5a>
     cd6:	0121                	addi	sp,sp,8
     cd8:	bd2ff06f          	j	aa <__riscv_restore_0>
     cdc:	7c448613          	addi	a2,s1,1988 # 37c4 <init_cmds>
     ce0:	9732                	add	a4,a4,a2
     ce2:	0405                	addi	s0,s0,1
     ce4:	0ff47793          	andi	a5,s0,255
     ce8:	2300                	lbu	s0,0(a4)
     cea:	01879693          	slli	a3,a5,0x18
     cee:	86e1                	srai	a3,a3,0x18
     cf0:	8522                	mv	a0,s0
     cf2:	c036                	sw	a3,0(sp)
     cf4:	c23e                	sw	a5,4(sp)
     cf6:	3729                	jal	c00 <Screen_SendCommand>
     cf8:	0f747593          	andi	a1,s0,247
     cfc:	02100613          	li	a2,33
     d00:	7c448713          	addi	a4,s1,1988
     d04:	4682                	lw	a3,0(sp)
     d06:	02c58863          	beq	a1,a2,d36 <Screen_Init+0xb4>
     d0a:	4645                	li	a2,17
     d0c:	02c40563          	beq	s0,a2,d36 <Screen_Init+0xb4>
     d10:	0441                	addi	s0,s0,16
     d12:	0ff47413          	andi	s0,s0,255
     d16:	4585                	li	a1,1
     d18:	4639                	li	a2,14
     d1a:	4792                	lw	a5,4(sp)
     d1c:	0085f363          	bgeu	a1,s0,d22 <Screen_Init+0xa0>
     d20:	4605                	li	a2,1
     d22:	00c78433          	add	s0,a5,a2
     d26:	01841613          	slli	a2,s0,0x18
     d2a:	8661                	srai	a2,a2,0x18
     d2c:	00c69763          	bne	a3,a2,d3a <Screen_Init+0xb8>
     d30:	01841693          	slli	a3,s0,0x18
     d34:	86e1                	srai	a3,a3,0x18
     d36:	8736                	mv	a4,a3
     d38:	bf49                	j	cca <Screen_Init+0x48>
     d3a:	00168793          	addi	a5,a3,1 # 10001 <_data_lma+0xc649>
     d3e:	96ba                	add	a3,a3,a4
     d40:	2288                	lbu	a0,0(a3)
     d42:	07e2                	slli	a5,a5,0x18
     d44:	87e1                	srai	a5,a5,0x18
     d46:	c232                	sw	a2,4(sp)
     d48:	c03e                	sw	a5,0(sp)
     d4a:	3569                	jal	bd4 <Screen_SendData_8Bit>
     d4c:	4782                	lw	a5,0(sp)
     d4e:	4612                	lw	a2,4(sp)
     d50:	86be                	mv	a3,a5
     d52:	678d                	lui	a5,0x3
     d54:	7c478713          	addi	a4,a5,1988 # 37c4 <init_cmds>
     d58:	bfd1                	j	d2c <Screen_Init+0xaa>

00000d5a <Screen_SetWindows>:
     d5a:	b46ff2ef          	jal	t0,a0 <__riscv_save_0>
     d5e:	0585                	addi	a1,a1,1
     d60:	82018323          	sb	zero,-2010(gp) # 200000be <dmaXoffset>
     d64:	820183a3          	sb	zero,-2009(gp) # 200000bf <dmaYoffset>
     d68:	01059793          	slli	a5,a1,0x10
     d6c:	1161                	addi	sp,sp,-8
     d6e:	0685                	addi	a3,a3,1
     d70:	83c1                	srli	a5,a5,0x10
     d72:	c03e                	sw	a5,0(sp)
     d74:	0509                	addi	a0,a0,2
     d76:	01069793          	slli	a5,a3,0x10
     d7a:	0609                	addi	a2,a2,2
     d7c:	83c1                	srli	a5,a5,0x10
     d7e:	01051493          	slli	s1,a0,0x10
     d82:	02a00513          	li	a0,42
     d86:	01061413          	slli	s0,a2,0x10
     d8a:	c23e                	sw	a5,4(sp)
     d8c:	80c1                	srli	s1,s1,0x10
     d8e:	3d8d                	jal	c00 <Screen_SendCommand>
     d90:	0084d513          	srli	a0,s1,0x8
     d94:	3581                	jal	bd4 <Screen_SendData_8Bit>
     d96:	0ff4f513          	andi	a0,s1,255
     d9a:	3d2d                	jal	bd4 <Screen_SendData_8Bit>
     d9c:	8041                	srli	s0,s0,0x10
     d9e:	00845513          	srli	a0,s0,0x8
     da2:	3d0d                	jal	bd4 <Screen_SendData_8Bit>
     da4:	0ff47513          	andi	a0,s0,255
     da8:	3535                	jal	bd4 <Screen_SendData_8Bit>
     daa:	02b00513          	li	a0,43
     dae:	3d89                	jal	c00 <Screen_SendCommand>
     db0:	4782                	lw	a5,0(sp)
     db2:	0087d513          	srli	a0,a5,0x8
     db6:	3d39                	jal	bd4 <Screen_SendData_8Bit>
     db8:	8008                	lbu	a0,0(sp)
     dba:	3d29                	jal	bd4 <Screen_SendData_8Bit>
     dbc:	4792                	lw	a5,4(sp)
     dbe:	0087d513          	srli	a0,a5,0x8
     dc2:	3d09                	jal	bd4 <Screen_SendData_8Bit>
     dc4:	8208                	lbu	a0,4(sp)
     dc6:	3539                	jal	bd4 <Screen_SendData_8Bit>
     dc8:	02c00513          	li	a0,44
     dcc:	3d15                	jal	c00 <Screen_SendCommand>
     dce:	0121                	addi	sp,sp,8
     dd0:	adaff06f          	j	aa <__riscv_restore_0>

00000dd4 <Screen_Clear>:
     dd4:	accff2ef          	jal	t0,a0 <__riscv_save_0>
     dd8:	1151                	addi	sp,sp,-12
     dda:	84aa                	mv	s1,a0
     ddc:	8432                	mv	s0,a2
     dde:	c43a                	sw	a4,8(sp)
     de0:	c02e                	sw	a1,0(sp)
     de2:	c236                	sw	a3,4(sp)
     de4:	3f9d                	jal	d5a <Screen_SetWindows>
     de6:	4722                	lw	a4,8(sp)
     de8:	4531                	li	a0,12
     dea:	00875313          	srli	t1,a4,0x8
     dee:	4781                	li	a5,0
     df0:	0ff77713          	andi	a4,a4,255
     df4:	11f00293          	li	t0,287
     df8:	82818613          	addi	a2,gp,-2008 # 200000c0 <lcd_gram>
     dfc:	45b1                	li	a1,12
     dfe:	00f2cb63          	blt	t0,a5,e14 <Screen_Clear+0x40>
     e02:	00178693          	addi	a3,a5,1
     e06:	00f603b3          	add	t2,a2,a5
     e0a:	00638023          	sb	t1,0(t2)
     e0e:	96b2                	add	a3,a3,a2
     e10:	0789                	addi	a5,a5,2
     e12:	a298                	sb	a4,0(a3)
     e14:	15fd                	addi	a1,a1,-1
     e16:	f5e5                	bnez	a1,dfe <Screen_Clear+0x2a>
     e18:	157d                	addi	a0,a0,-1
     e1a:	f16d                	bnez	a0,dfc <Screen_Clear+0x28>
     e1c:	4591                	li	a1,4
     e1e:	40011537          	lui	a0,0x40011
     e22:	2fc010ef          	jal	ra,211e <GPIO_SetBits>
     e26:	45c1                	li	a1,16
     e28:	40011537          	lui	a0,0x40011
     e2c:	2f6010ef          	jal	ra,2122 <GPIO_ResetBits>
     e30:	40020337          	lui	t1,0x40020
     e34:	400135b7          	lui	a1,0x40013
     e38:	12000693          	li	a3,288
     e3c:	08000793          	li	a5,128
     e40:	02000713          	li	a4,32
     e44:	03030513          	addi	a0,t1,48 # 40020030 <__global_pointer$+0x2001f798>
     e48:	82818613          	addi	a2,gp,-2008 # 200000c0 <lcd_gram>
     e4c:	05b1                	addi	a1,a1,12
     e4e:	90bff0ef          	jal	ra,758 <SPI_DMA_Tx_Init>
     e52:	4605                	li	a2,1
     e54:	4589                	li	a1,2
     e56:	40013537          	lui	a0,0x40013
     e5a:	4f0010ef          	jal	ra,234a <SPI_I2S_DMACmd>
     e5e:	40020337          	lui	t1,0x40020
     e62:	03030513          	addi	a0,t1,48 # 40020030 <__global_pointer$+0x2001f798>
     e66:	4585                	li	a1,1
     e68:	150010ef          	jal	ra,1fb8 <DMA_Cmd>
     e6c:	40940533          	sub	a0,s0,s1
     e70:	45b1                	li	a1,12
     e72:	052d                	addi	a0,a0,11
     e74:	a58ff0ef          	jal	ra,cc <__divsi3>
     e78:	4792                	lw	a5,4(sp)
     e7a:	4702                	lw	a4,0(sp)
     e7c:	842a                	mv	s0,a0
     e7e:	45b1                	li	a1,12
     e80:	40e78533          	sub	a0,a5,a4
     e84:	052d                	addi	a0,a0,11
     e86:	a46ff0ef          	jal	ra,cc <__divsi3>
     e8a:	85aa                	mv	a1,a0
     e8c:	8522                	mv	a0,s0
     e8e:	a26ff0ef          	jal	ra,b4 <__mulsi3>
     e92:	4781                	li	a5,0
     e94:	04f55d63          	bge	a0,a5,eee <Screen_Clear+0x11a>
     e98:	4589                	li	a1,2
     e9a:	40013537          	lui	a0,0x40013
     e9e:	4c6010ef          	jal	ra,2364 <SPI_I2S_GetFlagStatus>
     ea2:	d97d                	beqz	a0,e98 <Screen_Clear+0xc4>
     ea4:	40020537          	lui	a0,0x40020
     ea8:	4581                	li	a1,0
     eaa:	03050513          	addi	a0,a0,48 # 40020030 <__global_pointer$+0x2001f798>
     eae:	10a010ef          	jal	ra,1fb8 <DMA_Cmd>
     eb2:	4601                	li	a2,0
     eb4:	4589                	li	a1,2
     eb6:	40013537          	lui	a0,0x40013
     eba:	490010ef          	jal	ra,234a <SPI_I2S_DMACmd>
     ebe:	20000513          	li	a0,512
     ec2:	13c010ef          	jal	ra,1ffe <DMA_ClearITPendingBit>
     ec6:	45c1                	li	a1,16
     ec8:	40011537          	lui	a0,0x40011
     ecc:	252010ef          	jal	ra,211e <GPIO_SetBits>
     ed0:	0c900413          	li	s0,201
     ed4:	4585                	li	a1,1
     ed6:	40013537          	lui	a0,0x40013
     eda:	48a010ef          	jal	ra,2364 <SPI_I2S_GetFlagStatus>
     ede:	c10d                	beqz	a0,f00 <Screen_Clear+0x12c>
     ee0:	40013537          	lui	a0,0x40013
     ee4:	47c010ef          	jal	ra,2360 <SPI_I2S_ReceiveData>
     ee8:	0ff57513          	andi	a0,a0,255
     eec:	a02d                	j	f16 <Screen_Clear+0x142>
     eee:	9801c703          	lbu	a4,-1664(gp) # 20000218 <dmaTransferComplete>
     ef2:	0ff77713          	andi	a4,a4,255
     ef6:	df59                	beqz	a4,e94 <Screen_Clear+0xc0>
     ef8:	98018023          	sb	zero,-1664(gp) # 20000218 <dmaTransferComplete>
     efc:	0785                	addi	a5,a5,1
     efe:	bf59                	j	e94 <Screen_Clear+0xc0>
     f00:	147d                	addi	s0,s0,-1
     f02:	0ff47413          	andi	s0,s0,255
     f06:	f479                	bnez	s0,ed4 <Screen_Clear+0x100>
     f08:	00003537          	lui	a0,0x3
     f0c:	25050513          	addi	a0,a0,592 # 3250 <strlen+0x5c>
     f10:	29a020ef          	jal	ra,31aa <puts>
     f14:	4501                	li	a0,0
     f16:	0131                	addi	sp,sp,12
     f18:	992ff06f          	j	aa <__riscv_restore_0>

00000f1c <LCD_SHOW_API_INIT>:
     f1c:	984ff2ef          	jal	t0,a0 <__riscv_save_0>
     f20:	4505                	li	a0,1
     f22:	3385                	jal	c82 <Screen_Init>
     f24:	4701                	li	a4,0
     f26:	08000693          	li	a3,128
     f2a:	08000613          	li	a2,128
     f2e:	4581                	li	a1,0
     f30:	4501                	li	a0,0
     f32:	354d                	jal	dd4 <Screen_Clear>
     f34:	66c1                	lui	a3,0x10
     f36:	16fd                	addi	a3,a3,-1
     f38:	4601                	li	a2,0
     f3a:	08000593          	li	a1,128
     f3e:	08000513          	li	a0,128
     f42:	ab0ff0ef          	jal	ra,1f2 <Paint_NewImage>
     f46:	964ff06f          	j	aa <__riscv_restore_0>

00000f4a <LCD_Refrsh_DMA>:
     f4a:	956ff2ef          	jal	t0,a0 <__riscv_save_0>
     f4e:	1171                	addi	sp,sp,-4
     f50:	4591                	li	a1,4
     f52:	842a                	mv	s0,a0
     f54:	40011537          	lui	a0,0x40011
     f58:	1c6010ef          	jal	ra,211e <GPIO_SetBits>
     f5c:	45c1                	li	a1,16
     f5e:	40011537          	lui	a0,0x40011
     f62:	1c0010ef          	jal	ra,2122 <GPIO_ResetBits>
     f66:	12000793          	li	a5,288
     f6a:	0087d463          	bge	a5,s0,f72 <LCD_Refrsh_DMA+0x28>
     f6e:	12000413          	li	s0,288
     f72:	4601                	li	a2,0
     f74:	4589                	li	a1,2
     f76:	40013537          	lui	a0,0x40013
     f7a:	98018023          	sb	zero,-1664(gp) # 20000218 <dmaTransferComplete>
     f7e:	400204b7          	lui	s1,0x40020
     f82:	3c8010ef          	jal	ra,234a <SPI_I2S_DMACmd>
     f86:	03048513          	addi	a0,s1,48 # 40020030 <__global_pointer$+0x2001f798>
     f8a:	4581                	li	a1,0
     f8c:	02c010ef          	jal	ra,1fb8 <DMA_Cmd>
     f90:	01041693          	slli	a3,s0,0x10
     f94:	400135b7          	lui	a1,0x40013
     f98:	82818613          	addi	a2,gp,-2008 # 200000c0 <lcd_gram>
     f9c:	08000793          	li	a5,128
     fa0:	4701                	li	a4,0
     fa2:	82c1                	srli	a3,a3,0x10
     fa4:	03048513          	addi	a0,s1,48
     fa8:	05b1                	addi	a1,a1,12
     faa:	faeff0ef          	jal	ra,758 <SPI_DMA_Tx_Init>
     fae:	4605                	li	a2,1
     fb0:	4589                	li	a1,2
     fb2:	40013537          	lui	a0,0x40013
     fb6:	394010ef          	jal	ra,234a <SPI_I2S_DMACmd>
     fba:	03048513          	addi	a0,s1,48
     fbe:	4585                	li	a1,1
     fc0:	7f9000ef          	jal	ra,1fb8 <DMA_Cmd>
     fc4:	879a                	mv	a5,t1
     fc6:	8496                	mv	s1,t0
     fc8:	9801c703          	lbu	a4,-1664(gp) # 20000218 <dmaTransferComplete>
     fcc:	0ff77713          	andi	a4,a4,255
     fd0:	df65                	beqz	a4,fc8 <LCD_Refrsh_DMA+0x7e>
     fd2:	20000513          	li	a0,512
     fd6:	98018023          	sb	zero,-1664(gp) # 20000218 <dmaTransferComplete>
     fda:	012010ef          	jal	ra,1fec <DMA_ClearFlag>
     fde:	4589                	li	a1,2
     fe0:	40013537          	lui	a0,0x40013
     fe4:	380010ef          	jal	ra,2364 <SPI_I2S_GetFlagStatus>
     fe8:	d97d                	beqz	a0,fde <LCD_Refrsh_DMA+0x94>
     fea:	40020537          	lui	a0,0x40020
     fee:	4581                	li	a1,0
     ff0:	03050513          	addi	a0,a0,48 # 40020030 <__global_pointer$+0x2001f798>
     ff4:	7c5000ef          	jal	ra,1fb8 <DMA_Cmd>
     ff8:	4601                	li	a2,0
     ffa:	4589                	li	a1,2
     ffc:	40013537          	lui	a0,0x40013
    1000:	34a010ef          	jal	ra,234a <SPI_I2S_DMACmd>
    1004:	20000513          	li	a0,512
    1008:	7f7000ef          	jal	ra,1ffe <DMA_ClearITPendingBit>
    100c:	0c900793          	li	a5,201
    1010:	4585                	li	a1,1
    1012:	40013537          	lui	a0,0x40013
    1016:	c03e                	sw	a5,0(sp)
    1018:	34c010ef          	jal	ra,2364 <SPI_I2S_GetFlagStatus>
    101c:	4782                	lw	a5,0(sp)
    101e:	c515                	beqz	a0,104a <LCD_Refrsh_DMA+0x100>
    1020:	45c1                	li	a1,16
    1022:	40011537          	lui	a0,0x40011
    1026:	0f8010ef          	jal	ra,211e <GPIO_SetBits>
    102a:	8622                	mv	a2,s0
    102c:	0ff00593          	li	a1,255
    1030:	82818513          	addi	a0,gp,-2008 # 200000c0 <lcd_gram>
    1034:	916ff0ef          	jal	ra,14a <memset>
    1038:	40013537          	lui	a0,0x40013
    103c:	324010ef          	jal	ra,2360 <SPI_I2S_ReceiveData>
    1040:	0ff57513          	andi	a0,a0,255
    1044:	0111                	addi	sp,sp,4
    1046:	864ff06f          	j	aa <__riscv_restore_0>
    104a:	17fd                	addi	a5,a5,-1
    104c:	0ff7f793          	andi	a5,a5,255
    1050:	f3e1                	bnez	a5,1010 <LCD_Refrsh_DMA+0xc6>
    1052:	4501                	li	a0,0
    1054:	bfc5                	j	1044 <LCD_Refrsh_DMA+0xfa>

00001056 <Screen_DrawPaint>:
    1056:	84aff2ef          	jal	t0,a0 <__riscv_save_0>
    105a:	842a                	mv	s0,a0
    105c:	81d1c503          	lbu	a0,-2019(gp) # 200000b5 <dmaYpoint>
    1060:	8181a783          	lw	a5,-2024(gp) # 200000b0 <dmaFont>
    1064:	40a58533          	sub	a0,a1,a0
    1068:	1171                	addi	sp,sp,-4
    106a:	23ce                	lhu	a1,4(a5)
    106c:	c032                	sw	a2,0(sp)
    106e:	846ff0ef          	jal	ra,b4 <__mulsi3>
    1072:	81c1c783          	lbu	a5,-2020(gp) # 200000b4 <dmaXpoint>
    1076:	11e00693          	li	a3,286
    107a:	8c1d                	sub	s0,s0,a5
    107c:	942a                	add	s0,s0,a0
    107e:	0406                	slli	s0,s0,0x1
    1080:	0486e563          	bltu	a3,s0,10ca <Screen_DrawPaint+0x74>
    1084:	82618493          	addi	s1,gp,-2010 # 200000be <dmaXoffset>
    1088:	209c                	lbu	a5,0(s1)
    108a:	45b1                	li	a1,12
    108c:	00379513          	slli	a0,a5,0x3
    1090:	953e                	add	a0,a0,a5
    1092:	0516                	slli	a0,a0,0x5
    1094:	838ff0ef          	jal	ra,cc <__divsi3>
    1098:	4702                	lw	a4,0(sp)
    109a:	40a40533          	sub	a0,s0,a0
    109e:	82818793          	addi	a5,gp,-2008 # 200000c0 <lcd_gram>
    10a2:	97aa                	add	a5,a5,a0
    10a4:	00875613          	srli	a2,a4,0x8
    10a8:	a390                	sb	a2,0(a5)
    10aa:	b398                	sb	a4,1(a5)
    10ac:	11e00693          	li	a3,286
    10b0:	00d51d63          	bne	a0,a3,10ca <Screen_DrawPaint+0x74>
    10b4:	12000513          	li	a0,288
    10b8:	3d49                	jal	f4a <LCD_Refrsh_DMA>
    10ba:	209c                	lbu	a5,0(s1)
    10bc:	07b1                	addi	a5,a5,12
    10be:	a09c                	sb	a5,0(s1)
    10c0:	82718793          	addi	a5,gp,-2009 # 200000bf <dmaYoffset>
    10c4:	2398                	lbu	a4,0(a5)
    10c6:	0731                	addi	a4,a4,12
    10c8:	a398                	sb	a4,0(a5)
    10ca:	0111                	addi	sp,sp,4
    10cc:	fdffe06f          	j	aa <__riscv_restore_0>

000010d0 <Encoder_Scan>:
    10d0:	fd1fe2ef          	jal	t0,a0 <__riscv_save_0>
    10d4:	94c1c783          	lbu	a5,-1716(gp) # 200001e4 <precnt.4143>
    10d8:	94c18413          	addi	s0,gp,-1716 # 200001e4 <precnt.4143>
    10dc:	94818493          	addi	s1,gp,-1720 # 200001e0 <precircle.4144>
    10e0:	eb91                	bnez	a5,10f4 <Encoder_Scan+0x24>
    10e2:	409c                	lw	a5,0(s1)
    10e4:	eb81                	bnez	a5,10f4 <Encoder_Scan+0x24>
    10e6:	400007b7          	lui	a5,0x40000
    10ea:	33de                	lhu	a5,36(a5)
    10ec:	a01c                	sb	a5,0(s0)
    10ee:	97c1a783          	lw	a5,-1668(gp) # 20000214 <circle>
    10f2:	c09c                	sw	a5,0(s1)
    10f4:	4090                	lw	a2,0(s1)
    10f6:	97c1a703          	lw	a4,-1668(gp) # 20000214 <circle>
    10fa:	201c                	lbu	a5,0(s0)
    10fc:	00e61763          	bne	a2,a4,110a <Encoder_Scan+0x3a>
    1100:	40000737          	lui	a4,0x40000
    1104:	335a                	lhu	a4,36(a4)
    1106:	08e78f63          	beq	a5,a4,11a4 <Encoder_Scan+0xd4>
    110a:	40000737          	lui	a4,0x40000
    110e:	97c1a503          	lw	a0,-1668(gp) # 20000214 <circle>
    1112:	334e                	lhu	a1,36(a4)
    1114:	00161713          	slli	a4,a2,0x1
    1118:	9732                	add	a4,a4,a2
    111a:	070a                	slli	a4,a4,0x2
    111c:	973e                	add	a4,a4,a5
    111e:	00151793          	slli	a5,a0,0x1
    1122:	97aa                	add	a5,a5,a0
    1124:	078a                	slli	a5,a5,0x2
    1126:	97ae                	add	a5,a5,a1
    1128:	00e7db63          	bge	a5,a4,113e <Encoder_Scan+0x6e>
    112c:	00004537          	lui	a0,0x4
    1130:	4785                	li	a5,1
    1132:	80850513          	addi	a0,a0,-2040 # 3808 <init_cmds+0x44>
    1136:	98f1a223          	sw	a5,-1660(gp) # 2000021c <encode_struct>
    113a:	070020ef          	jal	ra,31aa <puts>
    113e:	400007b7          	lui	a5,0x40000
    1142:	97c1a503          	lw	a0,-1668(gp) # 20000214 <circle>
    1146:	33ce                	lhu	a1,36(a5)
    1148:	409c                	lw	a5,0(s1)
    114a:	00179713          	slli	a4,a5,0x1
    114e:	973e                	add	a4,a4,a5
    1150:	201c                	lbu	a5,0(s0)
    1152:	070a                	slli	a4,a4,0x2
    1154:	973e                	add	a4,a4,a5
    1156:	00151793          	slli	a5,a0,0x1
    115a:	97aa                	add	a5,a5,a0
    115c:	078a                	slli	a5,a5,0x2
    115e:	97ae                	add	a5,a5,a1
    1160:	00f75b63          	bge	a4,a5,1176 <Encoder_Scan+0xa6>
    1164:	00004537          	lui	a0,0x4
    1168:	4789                	li	a5,2
    116a:	81450513          	addi	a0,a0,-2028 # 3814 <init_cmds+0x50>
    116e:	98f1a223          	sw	a5,-1660(gp) # 2000021c <encode_struct>
    1172:	038020ef          	jal	ra,31aa <puts>
    1176:	97c1a783          	lw	a5,-1668(gp) # 20000214 <circle>
    117a:	c09c                	sw	a5,0(s1)
    117c:	400007b7          	lui	a5,0x40000
    1180:	33de                	lhu	a5,36(a5)
    1182:	a01c                	sb	a5,0(s0)
    1184:	98418793          	addi	a5,gp,-1660 # 2000021c <encode_struct>
    1188:	23d8                	lbu	a4,4(a5)
    118a:	eb19                	bnez	a4,11a0 <Encoder_Scan+0xd0>
    118c:	00004537          	lui	a0,0x4
    1190:	4705                	li	a4,1
    1192:	82450513          	addi	a0,a0,-2012 # 3824 <init_cmds+0x60>
    1196:	a3d8                	sb	a4,4(a5)
    1198:	9801a223          	sw	zero,-1660(gp) # 2000021c <encode_struct>
    119c:	00e020ef          	jal	ra,31aa <puts>
    11a0:	4501                	li	a0,0
    11a2:	299d                	jal	1618 <refresh_SleepCounter>
    11a4:	f07fe06f          	j	aa <__riscv_restore_0>

000011a8 <get_battery_percentage>:
    11a8:	28400793          	li	a5,644
    11ac:	08a7ec63          	bltu	a5,a0,1244 <get_battery_percentage+0x9c>
    11b0:	1a400713          	li	a4,420
    11b4:	4781                	li	a5,0
    11b6:	08a77963          	bgeu	a4,a0,1248 <get_battery_percentage+0xa0>
    11ba:	ee7fe2ef          	jal	t0,a0 <__riscv_save_0>
    11be:	1dc00793          	li	a5,476
    11c2:	04a7ff63          	bgeu	a5,a0,1220 <get_battery_percentage+0x78>
    11c6:	22d00793          	li	a5,557
    11ca:	06a7f163          	bgeu	a5,a0,122c <get_battery_percentage+0x84>
    11ce:	26000793          	li	a5,608
    11d2:	06a7f363          	bgeu	a5,a0,1238 <get_battery_percentage+0x90>
    11d6:	28500593          	li	a1,645
    11da:	26100713          	li	a4,609
    11de:	440d                	li	s0,3
    11e0:	8d19                	sub	a0,a0,a4
    11e2:	0542                	slli	a0,a0,0x10
    11e4:	8141                	srli	a0,a0,0x10
    11e6:	00151793          	slli	a5,a0,0x1
    11ea:	8d99                	sub	a1,a1,a4
    11ec:	97aa                	add	a5,a5,a0
    11ee:	078e                	slli	a5,a5,0x3
    11f0:	05c2                	slli	a1,a1,0x10
    11f2:	953e                	add	a0,a0,a5
    11f4:	81c1                	srli	a1,a1,0x10
    11f6:	ed7fe0ef          	jal	ra,cc <__divsi3>
    11fa:	6791                	lui	a5,0x4
    11fc:	84478793          	addi	a5,a5,-1980 # 3844 <percent_points>
    1200:	97a2                	add	a5,a5,s0
    1202:	239c                	lbu	a5,0(a5)
    1204:	06400713          	li	a4,100
    1208:	953e                	add	a0,a0,a5
    120a:	0ff57793          	andi	a5,a0,255
    120e:	0ff57513          	andi	a0,a0,255
    1212:	00a77463          	bgeu	a4,a0,121a <get_battery_percentage+0x72>
    1216:	06400793          	li	a5,100
    121a:	853e                	mv	a0,a5
    121c:	e8ffe06f          	j	aa <__riscv_restore_0>
    1220:	1dd00593          	li	a1,477
    1224:	1a500713          	li	a4,421
    1228:	4401                	li	s0,0
    122a:	bf5d                	j	11e0 <get_battery_percentage+0x38>
    122c:	22e00593          	li	a1,558
    1230:	1dd00713          	li	a4,477
    1234:	4405                	li	s0,1
    1236:	b76d                	j	11e0 <get_battery_percentage+0x38>
    1238:	26100593          	li	a1,609
    123c:	22e00713          	li	a4,558
    1240:	4409                	li	s0,2
    1242:	bf79                	j	11e0 <get_battery_percentage+0x38>
    1244:	06400793          	li	a5,100
    1248:	853e                	mv	a0,a5
    124a:	8082                	ret

0000124c <DMA_Tx_Init>:
    124c:	e55fe2ef          	jal	t0,a0 <__riscv_save_0>
    1250:	fc410113          	addi	sp,sp,-60
    1254:	842a                	mv	s0,a0
    1256:	c22e                	sw	a1,4(sp)
    1258:	84b2                	mv	s1,a2
    125a:	4581                	li	a1,0
    125c:	02c00613          	li	a2,44
    1260:	0808                	addi	a0,sp,16
    1262:	c036                	sw	a3,0(sp)
    1264:	ee7fe0ef          	jal	ra,14a <memset>
    1268:	4585                	li	a1,1
    126a:	4505                	li	a0,1
    126c:	01a010ef          	jal	ra,2286 <RCC_AHBPeriphClockCmd>
    1270:	8522                	mv	a0,s0
    1272:	47d000ef          	jal	ra,1eee <DMA_DeInit>
    1276:	4792                	lw	a5,4(sp)
    1278:	4682                	lw	a3,0(sp)
    127a:	080c                	addi	a1,sp,16
    127c:	c83e                	sw	a5,16(sp)
    127e:	08000793          	li	a5,128
    1282:	d23e                	sw	a5,36(sp)
    1284:	10000793          	li	a5,256
    1288:	d43e                	sw	a5,40(sp)
    128a:	40000793          	li	a5,1024
    128e:	d63e                	sw	a5,44(sp)
    1290:	02000793          	li	a5,32
    1294:	d83e                	sw	a5,48(sp)
    1296:	8522                	mv	a0,s0
    1298:	678d                	lui	a5,0x3
    129a:	ce36                	sw	a3,28(sp)
    129c:	da3e                	sw	a5,52(sp)
    129e:	ca26                	sw	s1,20(sp)
    12a0:	cc02                	sw	zero,24(sp)
    12a2:	d002                	sw	zero,32(sp)
    12a4:	dc02                	sw	zero,56(sp)
    12a6:	4db000ef          	jal	ra,1f80 <DMA_Init>
    12aa:	4605                	li	a2,1
    12ac:	4589                	li	a1,2
    12ae:	8522                	mv	a0,s0
    12b0:	51d000ef          	jal	ra,1fcc <DMA_ITConfig>
    12b4:	47d9                	li	a5,22
    12b6:	847c                	sh	a5,8(sp)
    12b8:	0028                	addi	a0,sp,8
    12ba:	4785                	li	a5,1
    12bc:	c63e                	sw	a5,12(sp)
    12be:	00010523          	sb	zero,10(sp)
    12c2:	6a9000ef          	jal	ra,216a <NVIC_Init>
    12c6:	03c10113          	addi	sp,sp,60
    12ca:	de1fe06f          	j	aa <__riscv_restore_0>

000012ce <Battery_Init>:
    12ce:	dd3fe2ef          	jal	t0,a0 <__riscv_save_0>
    12d2:	1121                	addi	sp,sp,-24
    12d4:	4661                	li	a2,24
    12d6:	4581                	li	a1,0
    12d8:	850a                	mv	a0,sp
    12da:	e71fe0ef          	jal	ra,14a <memset>
    12de:	4585                	li	a1,1
    12e0:	20000513          	li	a0,512
    12e4:	7c1000ef          	jal	ra,22a4 <RCC_APB2PeriphClockCmd>
    12e8:	6531                	lui	a0,0xc
    12ea:	40012437          	lui	s0,0x40012
    12ee:	6e3000ef          	jal	ra,21d0 <RCC_ADCCLKConfig>
    12f2:	40040513          	addi	a0,s0,1024 # 40012400 <__global_pointer$+0x20011b68>
    12f6:	259000ef          	jal	ra,1d4e <ADC_DeInit>
    12fa:	4785                	li	a5,1
    12fc:	000e0737          	lui	a4,0xe0
    1300:	858a                	mv	a1,sp
    1302:	40040513          	addi	a0,s0,1024
    1306:	c43e                	sw	a5,8(sp)
    1308:	c63a                	sw	a4,12(sp)
    130a:	00f10a23          	sb	a5,20(sp)
    130e:	c002                	sw	zero,0(sp)
    1310:	c202                	sw	zero,4(sp)
    1312:	c802                	sw	zero,16(sp)
    1314:	261000ef          	jal	ra,1d74 <ADC_Init>
    1318:	020005b7          	lui	a1,0x2000
    131c:	40040513          	addi	a0,s0,1024
    1320:	3bb000ef          	jal	ra,1eda <ADC_Calibration_Vol>
    1324:	4585                	li	a1,1
    1326:	40040513          	addi	a0,s0,1024
    132a:	2a9000ef          	jal	ra,1dd2 <ADC_DMACmd>
    132e:	4585                	li	a1,1
    1330:	40040513          	addi	a0,s0,1024
    1334:	28f000ef          	jal	ra,1dc2 <ADC_Cmd>
    1338:	40040513          	addi	a0,s0,1024
    133c:	2a9000ef          	jal	ra,1de4 <ADC_ResetCalibration>
    1340:	40040493          	addi	s1,s0,1024
    1344:	8526                	mv	a0,s1
    1346:	2a9000ef          	jal	ra,1dee <ADC_GetResetCalibrationStatus>
    134a:	fd6d                	bnez	a0,1344 <Battery_Init+0x76>
    134c:	40040513          	addi	a0,s0,1024
    1350:	40012437          	lui	s0,0x40012
    1354:	2a3000ef          	jal	ra,1df6 <ADC_StartCalibration>
    1358:	40040493          	addi	s1,s0,1024 # 40012400 <__global_pointer$+0x20011b68>
    135c:	8526                	mv	a0,s1
    135e:	2a3000ef          	jal	ra,1e00 <ADC_GetCalibrationStatus>
    1362:	fd6d                	bnez	a0,135c <Battery_Init+0x8e>
    1364:	400204b7          	lui	s1,0x40020
    1368:	46bd                	li	a3,15
    136a:	95018613          	addi	a2,gp,-1712 # 200001e8 <BattaryBuf>
    136e:	44c40593          	addi	a1,s0,1100
    1372:	00848513          	addi	a0,s1,8 # 40020008 <__global_pointer$+0x2001f770>
    1376:	3dd9                	jal	124c <DMA_Tx_Init>
    1378:	00848513          	addi	a0,s1,8
    137c:	4585                	li	a1,1
    137e:	43b000ef          	jal	ra,1fb8 <DMA_Cmd>
    1382:	469d                	li	a3,7
    1384:	4605                	li	a2,1
    1386:	40040513          	addi	a0,s0,1024
    138a:	4585                	li	a1,1
    138c:	295000ef          	jal	ra,1e20 <ADC_RegularChannelConfig>
    1390:	4585                	li	a1,1
    1392:	40040513          	addi	a0,s0,1024
    1396:	273000ef          	jal	ra,1e08 <ADC_SoftwareStartConvCmd>
    139a:	0161                	addi	sp,sp,24
    139c:	d0ffe06f          	j	aa <__riscv_restore_0>

000013a0 <show_battery>:
    13a0:	d01fe2ef          	jal	t0,a0 <__riscv_save_0>
    13a4:	1101                	addi	sp,sp,-32
    13a6:	c62a                	sw	a0,12(sp)
    13a8:	9701d503          	lhu	a0,-1680(gp) # 20000208 <Battery_ADC_Average>
    13ac:	c43a                	sw	a4,8(sp)
    13ae:	842e                	mv	s0,a1
    13b0:	84b2                	mv	s1,a2
    13b2:	ca36                	sw	a3,20(sp)
    13b4:	3bd5                	jal	11a8 <get_battery_percentage>
    13b6:	06400793          	li	a5,100
    13ba:	96e18313          	addi	t1,gp,-1682 # 20000206 <percentage.4851>
    13be:	4722                	lw	a4,8(sp)
    13c0:	0ea7e263          	bltu	a5,a0,14a4 <show_battery+0x104>
    13c4:	00a30023          	sb	a0,0(t1)
    13c8:	00034783          	lbu	a5,0(t1)
    13cc:	200006b7          	lui	a3,0x20000
    13d0:	c43e                	sw	a5,8(sp)
    13d2:	4622                	lw	a2,8(sp)
    13d4:	0486c783          	lbu	a5,72(a3) # 20000048 <Prepercentage.4852>
    13d8:	04868693          	addi	a3,a3,72
    13dc:	8f91                	sub	a5,a5,a2
    13de:	41f7d613          	srai	a2,a5,0x1f
    13e2:	8fb1                	xor	a5,a5,a2
    13e4:	8f91                	sub	a5,a5,a2
    13e6:	4615                	li	a2,5
    13e8:	00f64463          	blt	a2,a5,13f0 <show_battery+0x50>
    13ec:	231c                	lbu	a5,0(a4)
    13ee:	cbc5                	beqz	a5,149e <show_battery+0xfe>
    13f0:	47a2                	lw	a5,8(sp)
    13f2:	00070023          	sb	zero,0(a4) # e0000 <_data_lma+0xdc648>
    13f6:	4622                	lw	a2,8(sp)
    13f8:	a29c                	sb	a5,0(a3)
    13fa:	200006b7          	lui	a3,0x20000
    13fe:	01868293          	addi	t0,a3,24 # 20000018 <Font16_Num>
    1402:	0042d783          	lhu	a5,4(t0)
    1406:	06300713          	li	a4,99
    140a:	00279513          	slli	a0,a5,0x2
    140e:	08c77e63          	bgeu	a4,a2,14aa <show_battery+0x10a>
    1412:	4732                	lw	a4,12(sp)
    1414:	8f89                	sub	a5,a5,a0
    1416:	4522                	lw	a0,8(sp)
    1418:	97ba                	add	a5,a5,a4
    141a:	07c2                	slli	a5,a5,0x10
    141c:	83c1                	srli	a5,a5,0x10
    141e:	460d                	li	a2,3
    1420:	086c                	addi	a1,sp,28
    1422:	c83e                	sw	a5,16(sp)
    1424:	66e010ef          	jal	ra,2a92 <intToStr>
    1428:	7e000293          	li	t0,2016
    142c:	3e700793          	li	a5,999
    1430:	c23e                	sw	a5,4(sp)
    1432:	03000793          	li	a5,48
    1436:	c03e                	sw	a5,0(sp)
    1438:	4542                	lw	a0,16(sp)
    143a:	47d2                	lw	a5,20(sp)
    143c:	20000337          	lui	t1,0x20000
    1440:	01830693          	addi	a3,t1,24 # 20000018 <Font16_Num>
    1444:	8726                	mv	a4,s1
    1446:	0870                	addi	a2,sp,28
    1448:	85a2                	mv	a1,s0
    144a:	cc16                	sw	t0,24(sp)
    144c:	9fcff0ef          	jal	ra,648 <Paint_DrawString>
    1450:	47d2                	lw	a5,20(sp)
    1452:	4532                	lw	a0,12(sp)
    1454:	20000337          	lui	t1,0x20000
    1458:	8726                	mv	a4,s1
    145a:	01830693          	addi	a3,t1,24 # 20000018 <Font16_Num>
    145e:	c002                	sw	zero,0(sp)
    1460:	4629                	li	a2,10
    1462:	85a2                	mv	a1,s0
    1464:	854ff0ef          	jal	ra,4b8 <Paint_DrawChar>
    1468:	9781a783          	lw	a5,-1672(gp) # 20000210 <charge>
    146c:	4705                	li	a4,1
    146e:	20000337          	lui	t1,0x20000
    1472:	42e2                	lw	t0,24(sp)
    1474:	0ce79d63          	bne	a5,a4,154e <show_battery+0x1ae>
    1478:	01830313          	addi	t1,t1,24 # 20000018 <Font16_Num>
    147c:	00435503          	lhu	a0,4(t1)
    1480:	47b2                	lw	a5,12(sp)
    1482:	200006b7          	lui	a3,0x20000
    1486:	c002                	sw	zero,0(sp)
    1488:	953e                	add	a0,a0,a5
    148a:	0542                	slli	a0,a0,0x10
    148c:	8796                	mv	a5,t0
    148e:	8726                	mv	a4,s1
    1490:	00868693          	addi	a3,a3,8 # 20000008 <Font16_Bat>
    1494:	4605                	li	a2,1
    1496:	85a2                	mv	a1,s0
    1498:	8141                	srli	a0,a0,0x10
    149a:	81eff0ef          	jal	ra,4b8 <Paint_DrawChar>
    149e:	6105                	addi	sp,sp,32
    14a0:	c0bfe06f          	j	aa <__riscv_restore_0>
    14a4:	00f30023          	sb	a5,0(t1)
    14a8:	b705                	j	13c8 <show_battery+0x28>
    14aa:	4732                	lw	a4,12(sp)
    14ac:	40a78533          	sub	a0,a5,a0
    14b0:	4622                	lw	a2,8(sp)
    14b2:	953a                	add	a0,a0,a4
    14b4:	0542                	slli	a0,a0,0x10
    14b6:	4725                	li	a4,9
    14b8:	8141                	srli	a0,a0,0x10
    14ba:	04c76b63          	bltu	a4,a2,1510 <show_battery+0x170>
    14be:	3e700793          	li	a5,999
    14c2:	c23e                	sw	a5,4(sp)
    14c4:	00004637          	lui	a2,0x4
    14c8:	03000793          	li	a5,48
    14cc:	c03e                	sw	a5,0(sp)
    14ce:	8726                	mv	a4,s1
    14d0:	87a6                	mv	a5,s1
    14d2:	01868693          	addi	a3,a3,24
    14d6:	84c60613          	addi	a2,a2,-1972 # 384c <percent_points+0x8>
    14da:	85a2                	mv	a1,s0
    14dc:	96cff0ef          	jal	ra,648 <Paint_DrawString>
    14e0:	200007b7          	lui	a5,0x20000
    14e4:	01878293          	addi	t0,a5,24 # 20000018 <Font16_Num>
    14e8:	0042d783          	lhu	a5,4(t0)
    14ec:	4732                	lw	a4,12(sp)
    14ee:	4605                	li	a2,1
    14f0:	086c                	addi	a1,sp,28
    14f2:	40f707b3          	sub	a5,a4,a5
    14f6:	07c2                	slli	a5,a5,0x10
    14f8:	83c1                	srli	a5,a5,0x10
    14fa:	c83e                	sw	a5,16(sp)
    14fc:	96e18313          	addi	t1,gp,-1682 # 20000206 <percentage.4851>
    1500:	00034503          	lbu	a0,0(t1)
    1504:	58e010ef          	jal	ra,2a92 <intToStr>
    1508:	62c1                	lui	t0,0x10
    150a:	80028293          	addi	t0,t0,-2048 # f800 <_data_lma+0xbe48>
    150e:	bf39                	j	142c <show_battery+0x8c>
    1510:	97aa                	add	a5,a5,a0
    1512:	07c2                	slli	a5,a5,0x10
    1514:	83c1                	srli	a5,a5,0x10
    1516:	c83e                	sw	a5,16(sp)
    1518:	3e700793          	li	a5,999
    151c:	c23e                	sw	a5,4(sp)
    151e:	00004637          	lui	a2,0x4
    1522:	03000793          	li	a5,48
    1526:	c03e                	sw	a5,0(sp)
    1528:	8726                	mv	a4,s1
    152a:	87a6                	mv	a5,s1
    152c:	01868693          	addi	a3,a3,24
    1530:	85060613          	addi	a2,a2,-1968 # 3850 <percent_points+0xc>
    1534:	85a2                	mv	a1,s0
    1536:	912ff0ef          	jal	ra,648 <Paint_DrawString>
    153a:	96e18313          	addi	t1,gp,-1682 # 20000206 <percentage.4851>
    153e:	00034503          	lbu	a0,0(t1)
    1542:	4609                	li	a2,2
    1544:	086c                	addi	a1,sp,28
    1546:	54c010ef          	jal	ra,2a92 <intToStr>
    154a:	42fd                	li	t0,31
    154c:	b5c5                	j	142c <show_battery+0x8c>
    154e:	fba1                	bnez	a5,149e <show_battery+0xfe>
    1550:	01830313          	addi	t1,t1,24
    1554:	00435503          	lhu	a0,4(t1)
    1558:	47b2                	lw	a5,12(sp)
    155a:	200006b7          	lui	a3,0x20000
    155e:	8726                	mv	a4,s1
    1560:	953e                	add	a0,a0,a5
    1562:	0542                	slli	a0,a0,0x10
    1564:	8796                	mv	a5,t0
    1566:	00868693          	addi	a3,a3,8 # 20000008 <Font16_Bat>
    156a:	4601                	li	a2,0
    156c:	85a2                	mv	a1,s0
    156e:	8141                	srli	a0,a0,0x10
    1570:	c002                	sw	zero,0(sp)
    1572:	c616                	sw	t0,12(sp)
    1574:	f45fe0ef          	jal	ra,4b8 <Paint_DrawChar>
    1578:	4522                	lw	a0,8(sp)
    157a:	45e5                	li	a1,25
    157c:	4481                	li	s1,0
    157e:	b57fe0ef          	jal	ra,d4 <__udivsi3>
    1582:	42b2                	lw	t0,12(sp)
    1584:	0ff57313          	andi	t1,a0,255
    1588:	00740393          	addi	t2,s0,7
    158c:	0ff4f793          	andi	a5,s1,255
    1590:	f067f7e3          	bgeu	a5,t1,149e <show_battery+0xfe>
    1594:	00149613          	slli	a2,s1,0x1
    1598:	9626                	add	a2,a2,s1
    159a:	07060613          	addi	a2,a2,112
    159e:	0642                	slli	a2,a2,0x10
    15a0:	00340593          	addi	a1,s0,3
    15a4:	01039693          	slli	a3,t2,0x10
    15a8:	8241                	srli	a2,a2,0x10
    15aa:	05c2                	slli	a1,a1,0x10
    15ac:	8716                	mv	a4,t0
    15ae:	c002                	sw	zero,0(sp)
    15b0:	4785                	li	a5,1
    15b2:	82c1                	srli	a3,a3,0x10
    15b4:	81c1                	srli	a1,a1,0x10
    15b6:	8532                	mv	a0,a2
    15b8:	c81a                	sw	t1,16(sp)
    15ba:	c616                	sw	t0,12(sp)
    15bc:	c41e                	sw	t2,8(sp)
    15be:	d7bfe0ef          	jal	ra,338 <Paint_DrawLine>
    15c2:	0485                	addi	s1,s1,1
    15c4:	4342                	lw	t1,16(sp)
    15c6:	42b2                	lw	t0,12(sp)
    15c8:	43a2                	lw	t2,8(sp)
    15ca:	b7c9                	j	158c <show_battery+0x1ec>

000015cc <TIM2_IRQHandler>:
    15cc:	40000737          	lui	a4,0x40000
    15d0:	335e                	lhu	a5,36(a4)
    15d2:	1171                	addi	sp,sp,-4
    15d4:	4585                	li	a1,1
    15d6:	07c2                	slli	a5,a5,0x10
    15d8:	83c1                	srli	a5,a5,0x10
    15da:	807c                	sh	a5,0(sp)
    15dc:	375e                	lhu	a5,44(a4)
    15de:	40000537          	lui	a0,0x40000
    15e2:	07c2                	slli	a5,a5,0x10
    15e4:	83c1                	srli	a5,a5,0x10
    15e6:	817c                	sh	a5,2(sp)
    15e8:	188010ef          	jal	ra,2770 <TIM_GetITStatus>
    15ec:	c919                	beqz	a0,1602 <TIM2_IRQHandler+0x36>
    15ee:	8138                	lhu	a4,2(sp)
    15f0:	8034                	lhu	a3,0(sp)
    15f2:	8305                	srli	a4,a4,0x1
    15f4:	97c18793          	addi	a5,gp,-1668 # 20000214 <circle>
    15f8:	00e6fd63          	bgeu	a3,a4,1612 <TIM2_IRQHandler+0x46>
    15fc:	4398                	lw	a4,0(a5)
    15fe:	0705                	addi	a4,a4,1
    1600:	c398                	sw	a4,0(a5)
    1602:	4585                	li	a1,1
    1604:	40000537          	lui	a0,0x40000
    1608:	180010ef          	jal	ra,2788 <TIM_ClearITPendingBit>
    160c:	0111                	addi	sp,sp,4
    160e:	30200073          	mret
    1612:	4398                	lw	a4,0(a5)
    1614:	177d                	addi	a4,a4,-1
    1616:	b7ed                	j	1600 <TIM2_IRQHandler+0x34>

00001618 <refresh_SleepCounter>:
    1618:	96a1aa23          	sw	a0,-1676(gp) # 2000020c <SleepCounter>
    161c:	8082                	ret

0000161e <DMA1_Channel3_IRQHandler>:
    161e:	20000513          	li	a0,512
    1622:	1d3000ef          	jal	ra,1ff4 <DMA_GetITStatus>
    1626:	c901                	beqz	a0,1636 <DMA1_Channel3_IRQHandler+0x18>
    1628:	4705                	li	a4,1
    162a:	20000513          	li	a0,512
    162e:	98e18023          	sb	a4,-1664(gp) # 20000218 <dmaTransferComplete>
    1632:	1cd000ef          	jal	ra,1ffe <DMA_ClearITPendingBit>
    1636:	30200073          	mret

0000163a <DMA1_Channel1_IRQHandler>:
    163a:	4509                	li	a0,2
    163c:	1b9000ef          	jal	ra,1ff4 <DMA_GetITStatus>
    1640:	c131                	beqz	a0,1684 <DMA1_Channel1_IRQHandler+0x4a>
    1642:	95018793          	addi	a5,gp,-1712 # 200001e8 <BattaryBuf>
    1646:	01e78713          	addi	a4,a5,30
    164a:	4501                	li	a0,0
    164c:	2396                	lhu	a3,0(a5)
    164e:	0789                	addi	a5,a5,2
    1650:	9536                	add	a0,a0,a3
    1652:	0542                	slli	a0,a0,0x10
    1654:	8141                	srli	a0,a0,0x10
    1656:	fef71be3          	bne	a4,a5,164c <DMA1_Channel1_IRQHandler+0x12>
    165a:	45bd                	li	a1,15
    165c:	a79fe0ef          	jal	ra,d4 <__udivsi3>
    1660:	98e18793          	addi	a5,gp,-1650 # 20000226 <pre_Battery_ADC_Average>
    1664:	2392                	lhu	a2,0(a5)
    1666:	0542                	slli	a0,a0,0x10
    1668:	8141                	srli	a0,a0,0x10
    166a:	97018713          	addi	a4,gp,-1680 # 20000208 <Battery_ADC_Average>
    166e:	40a606b3          	sub	a3,a2,a0
    1672:	a30a                	sh	a0,0(a4)
    1674:	06a5                	addi	a3,a3,9
    1676:	45c9                	li	a1,18
    1678:	00d5e863          	bltu	a1,a3,1688 <DMA1_Channel1_IRQHandler+0x4e>
    167c:	a312                	sh	a2,0(a4)
    167e:	4509                	li	a0,2
    1680:	17f000ef          	jal	ra,1ffe <DMA_ClearITPendingBit>
    1684:	30200073          	mret
    1688:	a38a                	sh	a0,0(a5)
    168a:	bfd5                	j	167e <DMA1_Channel1_IRQHandler+0x44>

0000168c <NMI_Handler>:
    168c:	00004537          	lui	a0,0x4
    1690:	91850513          	addi	a0,a0,-1768 # 3918 <percent_points+0xd4>
    1694:	317010ef          	jal	ra,31aa <puts>
    1698:	a001                	j	1698 <NMI_Handler+0xc>

0000169a <HardFault_Handler>:
    169a:	00004537          	lui	a0,0x4
    169e:	8fc50513          	addi	a0,a0,-1796 # 38fc <percent_points+0xb8>
    16a2:	309010ef          	jal	ra,31aa <puts>
    16a6:	a001                	j	16a6 <HardFault_Handler+0xc>

000016a8 <EXTI_INT_INIT>:
    16a8:	9f9fe2ef          	jal	t0,a0 <__riscv_save_0>
    16ac:	fdc10113          	addi	sp,sp,-36
    16b0:	4585                	li	a1,1
    16b2:	03100513          	li	a0,49
    16b6:	c402                	sw	zero,8(sp)
    16b8:	c602                	sw	zero,12(sp)
    16ba:	c802                	sw	zero,16(sp)
    16bc:	ca02                	sw	zero,20(sp)
    16be:	cc02                	sw	zero,24(sp)
    16c0:	ce02                	sw	zero,28(sp)
    16c2:	d002                	sw	zero,32(sp)
    16c4:	c002                	sw	zero,0(sp)
    16c6:	c202                	sw	zero,4(sp)
    16c8:	3dd000ef          	jal	ra,22a4 <RCC_APB2PeriphClockCmd>
    16cc:	40011537          	lui	a0,0x40011
    16d0:	4791                	li	a5,4
    16d2:	04800413          	li	s0,72
    16d6:	002c                	addi	a1,sp,8
    16d8:	40050513          	addi	a0,a0,1024 # 40011400 <__global_pointer$+0x20010b68>
    16dc:	847c                	sh	a5,8(sp)
    16de:	c822                	sw	s0,16(sp)
    16e0:	1b9000ef          	jal	ra,2098 <GPIO_Init>
    16e4:	002c                	addi	a1,sp,8
    16e6:	4489                	li	s1,2
    16e8:	40011537          	lui	a0,0x40011
    16ec:	8464                	sh	s1,8(sp)
    16ee:	c822                	sw	s0,16(sp)
    16f0:	1a9000ef          	jal	ra,2098 <GPIO_Init>
    16f4:	4791                	li	a5,4
    16f6:	4405                	li	s0,1
    16f8:	ca3e                	sw	a5,20(sp)
    16fa:	0848                	addi	a0,sp,20
    16fc:	47c1                	li	a5,16
    16fe:	ce3e                	sw	a5,28(sp)
    1700:	d022                	sw	s0,32(sp)
    1702:	cc02                	sw	zero,24(sp)
    1704:	103000ef          	jal	ra,2006 <EXTI_Init>
    1708:	4709                	li	a4,2
    170a:	47c1                	li	a5,16
    170c:	0848                	addi	a0,sp,20
    170e:	ca3a                	sw	a4,20(sp)
    1710:	ce3e                	sw	a5,28(sp)
    1712:	d022                	sw	s0,32(sp)
    1714:	cc02                	sw	zero,24(sp)
    1716:	0f1000ef          	jal	ra,2006 <EXTI_Init>
    171a:	11400793          	li	a5,276
    171e:	850a                	mv	a0,sp
    1720:	807c                	sh	a5,0(sp)
    1722:	8144                	sb	s1,2(sp)
    1724:	c222                	sw	s0,4(sp)
    1726:	245000ef          	jal	ra,216a <NVIC_Init>
    172a:	00004537          	lui	a0,0x4
    172e:	8ec50513          	addi	a0,a0,-1812 # 38ec <percent_points+0xa8>
    1732:	279010ef          	jal	ra,31aa <puts>
    1736:	02410113          	addi	sp,sp,36
    173a:	971fe06f          	j	aa <__riscv_restore_0>

0000173e <system_wokeup>:
    173e:	963fe2ef          	jal	t0,a0 <__riscv_save_0>
    1742:	98c18413          	addi	s0,gp,-1652 # 20000224 <needSleep>
    1746:	9601aa23          	sw	zero,-1676(gp) # 2000020c <SleepCounter>
    174a:	201c                	lbu	a5,0(s0)
    174c:	0ff7f793          	andi	a5,a5,255
    1750:	cfa9                	beqz	a5,17aa <system_wokeup+0x6c>
    1752:	200007b7          	lui	a5,0x20000
    1756:	06c7a503          	lw	a0,108(a5) # 2000006c <SystemCoreClock>
    175a:	000f45b7          	lui	a1,0xf4
    175e:	24058593          	addi	a1,a1,576 # f4240 <_data_lma+0xf0888>
    1762:	973fe0ef          	jal	ra,d4 <__udivsi3>
    1766:	fff50593          	addi	a1,a0,-1
    176a:	05c2                	slli	a1,a1,0x10
    176c:	4651                	li	a2,20
    176e:	81c1                	srli	a1,a1,0x10
    1770:	06400513          	li	a0,100
    1774:	266d                	jal	1b1e <TIM1_Init>
    1776:	4585                	li	a1,1
    1778:	452d                	li	a0,11
    177a:	2179                	jal	1c08 <TIM2_Init>
    177c:	cc4ff0ef          	jal	ra,c40 <LCD_Drive_Init>
    1780:	b4fff0ef          	jal	ra,12ce <Battery_Init>
    1784:	6571                	lui	a0,0x1c
    1786:	20050513          	addi	a0,a0,512 # 1c200 <_data_lma+0x18848>
    178a:	25c010ef          	jal	ra,29e6 <USART_Printf_Init>
    178e:	00004537          	lui	a0,0x4
    1792:	92c50513          	addi	a0,a0,-1748 # 392c <percent_points+0xe8>
    1796:	215010ef          	jal	ra,31aa <puts>
    179a:	200007b7          	lui	a5,0x20000
    179e:	0407a823          	sw	zero,80(a5) # 20000050 <key+0x4>
    17a2:	9801a223          	sw	zero,-1660(gp) # 2000021c <encode_struct>
    17a6:	00040023          	sb	zero,0(s0)
    17aa:	901fe06f          	j	aa <__riscv_restore_0>

000017ae <EXTI7_0_IRQHandler>:
    17ae:	1171                	addi	sp,sp,-4
    17b0:	4511                	li	a0,4
    17b2:	c022                	sw	s0,0(sp)
    17b4:	0bd000ef          	jal	ra,2070 <EXTI_GetITStatus>
    17b8:	c129                	beqz	a0,17fa <EXTI7_0_IRQHandler+0x4c>
    17ba:	00004537          	lui	a0,0x4
    17be:	85450513          	addi	a0,a0,-1964 # 3854 <percent_points+0x10>
    17c2:	1e9010ef          	jal	ra,31aa <puts>
    17c6:	4511                	li	a0,4
    17c8:	0c7000ef          	jal	ra,208e <EXTI_ClearITPendingBit>
    17cc:	40011537          	lui	a0,0x40011
    17d0:	4591                	li	a1,4
    17d2:	40050513          	addi	a0,a0,1024 # 40011400 <__global_pointer$+0x20010b68>
    17d6:	20000437          	lui	s0,0x20000
    17da:	13b000ef          	jal	ra,2114 <GPIO_ReadInputDataBit>
    17de:	04c40413          	addi	s0,s0,76 # 2000004c <key>
    17e2:	e921                	bnez	a0,1832 <EXTI7_0_IRQHandler+0x84>
    17e4:	00004537          	lui	a0,0x4
    17e8:	4785                	li	a5,1
    17ea:	86450513          	addi	a0,a0,-1948 # 3864 <percent_points+0x20>
    17ee:	c01c                	sw	a5,0(s0)
    17f0:	1bb010ef          	jal	ra,31aa <puts>
    17f4:	00041523          	sh	zero,10(s0)
    17f8:	3799                	jal	173e <system_wokeup>
    17fa:	4509                	li	a0,2
    17fc:	075000ef          	jal	ra,2070 <EXTI_GetITStatus>
    1800:	c50d                	beqz	a0,182a <EXTI7_0_IRQHandler+0x7c>
    1802:	4589                	li	a1,2
    1804:	40011537          	lui	a0,0x40011
    1808:	10d000ef          	jal	ra,2114 <GPIO_ReadInputDataBit>
    180c:	97818793          	addi	a5,gp,-1672 # 20000210 <charge>
    1810:	ed59                	bnez	a0,18ae <EXTI7_0_IRQHandler+0x100>
    1812:	4705                	li	a4,1
    1814:	00004537          	lui	a0,0x4
    1818:	c398                	sw	a4,0(a5)
    181a:	8d050513          	addi	a0,a0,-1840 # 38d0 <percent_points+0x8c>
    181e:	18d010ef          	jal	ra,31aa <puts>
    1822:	3f31                	jal	173e <system_wokeup>
    1824:	4509                	li	a0,2
    1826:	069000ef          	jal	ra,208e <EXTI_ClearITPendingBit>
    182a:	4402                	lw	s0,0(sp)
    182c:	0111                	addi	sp,sp,4
    182e:	30200073          	mret
    1832:	00004537          	lui	a0,0x4
    1836:	87450513          	addi	a0,a0,-1932 # 3874 <percent_points+0x30>
    183a:	171010ef          	jal	ra,31aa <puts>
    183e:	243a                	lhu	a4,10(s0)
    1840:	6785                	lui	a5,0x1
    1842:	bb878793          	addi	a5,a5,-1096 # bb8 <show_page+0x2>
    1846:	02e7ed63          	bltu	a5,a4,1880 <EXTI7_0_IRQHandler+0xd2>
    184a:	4785                	li	a5,1
    184c:	00004537          	lui	a0,0x4
    1850:	c05c                	sw	a5,4(s0)
    1852:	88050513          	addi	a0,a0,-1920 # 3880 <percent_points+0x3c>
    1856:	155010ef          	jal	ra,31aa <puts>
    185a:	245c                	lbu	a5,12(s0)
    185c:	ef99                	bnez	a5,187a <EXTI7_0_IRQHandler+0xcc>
    185e:	00004537          	lui	a0,0x4
    1862:	4785                	li	a5,1
    1864:	8b850513          	addi	a0,a0,-1864 # 38b8 <percent_points+0x74>
    1868:	00042223          	sw	zero,4(s0)
    186c:	00042023          	sw	zero,0(s0)
    1870:	00041523          	sh	zero,10(s0)
    1874:	a45c                	sb	a5,12(s0)
    1876:	135010ef          	jal	ra,31aa <puts>
    187a:	478d                	li	a5,3
    187c:	c01c                	sw	a5,0(s0)
    187e:	bf9d                	j	17f4 <EXTI7_0_IRQHandler+0x46>
    1880:	00004537          	lui	a0,0x4
    1884:	4789                	li	a5,2
    1886:	89850513          	addi	a0,a0,-1896 # 3898 <percent_points+0x54>
    188a:	c05c                	sw	a5,4(s0)
    188c:	11f010ef          	jal	ra,31aa <puts>
    1890:	245c                	lbu	a5,12(s0)
    1892:	00041523          	sh	zero,10(s0)
    1896:	f3f5                	bnez	a5,187a <EXTI7_0_IRQHandler+0xcc>
    1898:	4785                	li	a5,1
    189a:	00004537          	lui	a0,0x4
    189e:	00042223          	sw	zero,4(s0)
    18a2:	00042023          	sw	zero,0(s0)
    18a6:	a45c                	sb	a5,12(s0)
    18a8:	8b850513          	addi	a0,a0,-1864 # 38b8 <percent_points+0x74>
    18ac:	b76d                	j	1856 <EXTI7_0_IRQHandler+0xa8>
    18ae:	00004537          	lui	a0,0x4
    18b2:	0007a023          	sw	zero,0(a5)
    18b6:	8e050513          	addi	a0,a0,-1824 # 38e0 <percent_points+0x9c>
    18ba:	b795                	j	181e <EXTI7_0_IRQHandler+0x70>

000018bc <TIM1_UP_IRQHandler>:
    18bc:	1171                	addi	sp,sp,-4
    18be:	c022                	sw	s0,0(sp)
    18c0:	40013437          	lui	s0,0x40013
    18c4:	4585                	li	a1,1
    18c6:	c0040513          	addi	a0,s0,-1024 # 40012c00 <__global_pointer$+0x20012368>
    18ca:	6a7000ef          	jal	ra,2770 <TIM_GetITStatus>
    18ce:	cd0d                	beqz	a0,1908 <TIM1_UP_IRQHandler+0x4c>
    18d0:	4585                	li	a1,1
    18d2:	c0040513          	addi	a0,s0,-1024
    18d6:	6b3000ef          	jal	ra,2788 <TIM_ClearITPendingBit>
    18da:	40011537          	lui	a0,0x40011
    18de:	4591                	li	a1,4
    18e0:	40050513          	addi	a0,a0,1024 # 40011400 <__global_pointer$+0x20010b68>
    18e4:	031000ef          	jal	ra,2114 <GPIO_ReadInputDataBit>
    18e8:	e105                	bnez	a0,1908 <TIM1_UP_IRQHandler+0x4c>
    18ea:	20000737          	lui	a4,0x20000
    18ee:	04c70713          	addi	a4,a4,76 # 2000004c <key>
    18f2:	273e                	lhu	a5,10(a4)
    18f4:	03100693          	li	a3,49
    18f8:	0785                	addi	a5,a5,1
    18fa:	07c2                	slli	a5,a5,0x10
    18fc:	83c1                	srli	a5,a5,0x10
    18fe:	a73e                	sh	a5,10(a4)
    1900:	00f6f463          	bgeu	a3,a5,1908 <TIM1_UP_IRQHandler+0x4c>
    1904:	4789                	li	a5,2
    1906:	c31c                	sw	a5,0(a4)
    1908:	4402                	lw	s0,0(sp)
    190a:	0111                	addi	sp,sp,4
    190c:	30200073          	mret

00001910 <AWU_IRQHandler>:
    1910:	20000513          	li	a0,512
    1914:	75c000ef          	jal	ra,2070 <EXTI_GetITStatus>
    1918:	c509                	beqz	a0,1922 <AWU_IRQHandler+0x12>
    191a:	20000513          	li	a0,512
    191e:	770000ef          	jal	ra,208e <EXTI_ClearITPendingBit>
    1922:	30200073          	mret

00001926 <main>:
    1926:	f7afe2ef          	jal	t0,a0 <__riscv_save_0>
    192a:	2261                	jal	1ab2 <SystemCoreClockUpdate>
    192c:	4505                	li	a0,1
    192e:	037000ef          	jal	ra,2164 <NVIC_PriorityGroupConfig>
    1932:	6571                	lui	a0,0x1c
    1934:	20050513          	addi	a0,a0,512 # 1c200 <_data_lma+0x18848>
    1938:	0ae010ef          	jal	ra,29e6 <USART_Printf_Init>
    193c:	20000437          	lui	s0,0x20000
    1940:	06c42583          	lw	a1,108(s0) # 2000006c <SystemCoreClock>
    1944:	00004537          	lui	a0,0x4
    1948:	93c50513          	addi	a0,a0,-1732 # 393c <percent_points+0xf8>
    194c:	03b010ef          	jal	ra,3186 <printf>
    1950:	028010ef          	jal	ra,2978 <Delay_Init>
    1954:	1ea010ef          	jal	ra,2b3e <Check_Reset_Flag>
    1958:	751000ef          	jal	ra,28a8 <My_GPIO_Init>
    195c:	4585                	li	a1,1
    195e:	452d                	li	a0,11
    1960:	2465                	jal	1c08 <TIM2_Init>
    1962:	06c42503          	lw	a0,108(s0)
    1966:	000f45b7          	lui	a1,0xf4
    196a:	24058593          	addi	a1,a1,576 # f4240 <_data_lma+0xf0888>
    196e:	f66fe0ef          	jal	ra,d4 <__udivsi3>
    1972:	fff50593          	addi	a1,a0,-1
    1976:	05c2                	slli	a1,a1,0x10
    1978:	4651                	li	a2,20
    197a:	81c1                	srli	a1,a1,0x10
    197c:	06400513          	li	a0,100
    1980:	2a79                	jal	1b1e <TIM1_Init>
    1982:	200007b7          	lui	a5,0x20000
    1986:	0207c503          	lbu	a0,32(a5) # 20000020 <fan_speed>
    198a:	eb9fe0ef          	jal	ra,842 <FAN_SetSpeed>
    198e:	200007b7          	lui	a5,0x20000
    1992:	0217c503          	lbu	a0,33(a5) # 20000021 <led_light>
    1996:	ec7fe0ef          	jal	ra,85c <LED_SetLight>
    199a:	aa6ff0ef          	jal	ra,c40 <LCD_Drive_Init>
    199e:	d7eff0ef          	jal	ra,f1c <LCD_SHOW_API_INIT>
    19a2:	92dff0ef          	jal	ra,12ce <Battery_Init>
    19a6:	d03ff0ef          	jal	ra,16a8 <EXTI_INT_INIT>
    19aa:	6585                	lui	a1,0x1
    19ac:	fa058593          	addi	a1,a1,-96 # fa0 <LCD_Refrsh_DMA+0x56>
    19b0:	4519                	li	a0,6
    19b2:	24ed                	jal	1c9c <IWDG_Feed_Init>
    19b4:	98c1c783          	lbu	a5,-1652(gp) # 20000224 <needSleep>
    19b8:	0ff7f793          	andi	a5,a5,255
    19bc:	ffe5                	bnez	a5,19b4 <main+0x8e>
    19be:	9f8ff0ef          	jal	ra,bb6 <show_page>
    19c2:	f0eff0ef          	jal	ra,10d0 <Encoder_Scan>
    19c6:	778000ef          	jal	ra,213e <IWDG_ReloadCounter>
    19ca:	b7ed                	j	19b4 <main+0x8e>

000019cc <SystemInit>:
    19cc:	ed4fe2ef          	jal	t0,a0 <__riscv_save_0>
    19d0:	40021437          	lui	s0,0x40021
    19d4:	401c                	lw	a5,0(s0)
    19d6:	f8ff0737          	lui	a4,0xf8ff0
    19da:	4541                	li	a0,16
    19dc:	0017e793          	ori	a5,a5,1
    19e0:	c01c                	sw	a5,0(s0)
    19e2:	405c                	lw	a5,4(s0)
    19e4:	8ff9                	and	a5,a5,a4
    19e6:	c05c                	sw	a5,4(s0)
    19e8:	401c                	lw	a5,0(s0)
    19ea:	fef70737          	lui	a4,0xfef70
    19ee:	177d                	addi	a4,a4,-1
    19f0:	8ff9                	and	a5,a5,a4
    19f2:	c01c                	sw	a5,0(s0)
    19f4:	401c                	lw	a5,0(s0)
    19f6:	fffc0737          	lui	a4,0xfffc0
    19fa:	177d                	addi	a4,a4,-1
    19fc:	8ff9                	and	a5,a5,a4
    19fe:	c01c                	sw	a5,0(s0)
    1a00:	405c                	lw	a5,4(s0)
    1a02:	7741                	lui	a4,0xffff0
    1a04:	177d                	addi	a4,a4,-1
    1a06:	8ff9                	and	a5,a5,a4
    1a08:	c05c                	sw	a5,4(s0)
    1a0a:	009f07b7          	lui	a5,0x9f0
    1a0e:	c41c                	sw	a5,8(s0)
    1a10:	7ae000ef          	jal	ra,21be <RCC_AdjustHSICalibrationValue>
    1a14:	4c1c                	lw	a5,24(s0)
    1a16:	0207e793          	ori	a5,a5,32
    1a1a:	cc1c                	sw	a5,24(s0)
    1a1c:	400117b7          	lui	a5,0x40011
    1a20:	4007a703          	lw	a4,1024(a5) # 40011400 <__global_pointer$+0x20010b68>
    1a24:	40078693          	addi	a3,a5,1024
    1a28:	f0f77713          	andi	a4,a4,-241
    1a2c:	40e7a023          	sw	a4,1024(a5)
    1a30:	4007a703          	lw	a4,1024(a5)
    1a34:	08076713          	ori	a4,a4,128
    1a38:	40e7a023          	sw	a4,1024(a5)
    1a3c:	4789                	li	a5,2
    1a3e:	ca9c                	sw	a5,16(a3)
    1a40:	1ffff7b7          	lui	a5,0x1ffff
    1a44:	7d47c503          	lbu	a0,2004(a5) # 1ffff7d4 <_data_lma+0x1fffbe1c>
    1a48:	0ff00793          	li	a5,255
    1a4c:	00f50563          	beq	a0,a5,1a56 <SystemInit+0x8a>
    1a50:	897d                	andi	a0,a0,31
    1a52:	76c000ef          	jal	ra,21be <RCC_AdjustHSICalibrationValue>
    1a56:	400227b7          	lui	a5,0x40022
    1a5a:	4398                	lw	a4,0(a5)
    1a5c:	76c1                	lui	a3,0xffff0
    1a5e:	16fd                	addi	a3,a3,-1
    1a60:	9b71                	andi	a4,a4,-4
    1a62:	c398                	sw	a4,0(a5)
    1a64:	4398                	lw	a4,0(a5)
    1a66:	00176713          	ori	a4,a4,1
    1a6a:	c398                	sw	a4,0(a5)
    1a6c:	400217b7          	lui	a5,0x40021
    1a70:	43d8                	lw	a4,4(a5)
    1a72:	c3d8                	sw	a4,4(a5)
    1a74:	43d8                	lw	a4,4(a5)
    1a76:	8f75                	and	a4,a4,a3
    1a78:	c3d8                	sw	a4,4(a5)
    1a7a:	43d8                	lw	a4,4(a5)
    1a7c:	010006b7          	lui	a3,0x1000
    1a80:	c3d8                	sw	a4,4(a5)
    1a82:	4398                	lw	a4,0(a5)
    1a84:	8f55                	or	a4,a4,a3
    1a86:	c398                	sw	a4,0(a5)
    1a88:	4398                	lw	a4,0(a5)
    1a8a:	00671693          	slli	a3,a4,0x6
    1a8e:	fe06dde3          	bgez	a3,1a88 <SystemInit+0xbc>
    1a92:	43d8                	lw	a4,4(a5)
    1a94:	400216b7          	lui	a3,0x40021
    1a98:	9b71                	andi	a4,a4,-4
    1a9a:	c3d8                	sw	a4,4(a5)
    1a9c:	43d8                	lw	a4,4(a5)
    1a9e:	00276713          	ori	a4,a4,2
    1aa2:	c3d8                	sw	a4,4(a5)
    1aa4:	4721                	li	a4,8
    1aa6:	42dc                	lw	a5,4(a3)
    1aa8:	8bb1                	andi	a5,a5,12
    1aaa:	fee79ee3          	bne	a5,a4,1aa6 <SystemInit+0xda>
    1aae:	dfcfe06f          	j	aa <__riscv_restore_0>

00001ab2 <SystemCoreClockUpdate>:
    1ab2:	deefe2ef          	jal	t0,a0 <__riscv_save_0>
    1ab6:	40021737          	lui	a4,0x40021
    1aba:	435c                	lw	a5,4(a4)
    1abc:	20000437          	lui	s0,0x20000
    1ac0:	4691                	li	a3,4
    1ac2:	8bb1                	andi	a5,a5,12
    1ac4:	06c40413          	addi	s0,s0,108 # 2000006c <SystemCoreClock>
    1ac8:	00d78563          	beq	a5,a3,1ad2 <SystemCoreClockUpdate+0x20>
    1acc:	46a1                	li	a3,8
    1ace:	04d78263          	beq	a5,a3,1b12 <SystemCoreClockUpdate+0x60>
    1ad2:	016e37b7          	lui	a5,0x16e3
    1ad6:	60078793          	addi	a5,a5,1536 # 16e3600 <_data_lma+0x16dfc48>
    1ada:	c01c                	sw	a5,0(s0)
    1adc:	400216b7          	lui	a3,0x40021
    1ae0:	42dc                	lw	a5,4(a3)
    1ae2:	4008                	lw	a0,0(s0)
    1ae4:	8391                	srli	a5,a5,0x4
    1ae6:	00f7f713          	andi	a4,a5,15
    1aea:	200007b7          	lui	a5,0x20000
    1aee:	05c78793          	addi	a5,a5,92 # 2000005c <AHBPrescTable>
    1af2:	97ba                	add	a5,a5,a4
    1af4:	238c                	lbu	a1,0(a5)
    1af6:	42dc                	lw	a5,4(a3)
    1af8:	0ff5f593          	andi	a1,a1,255
    1afc:	0807f793          	andi	a5,a5,128
    1b00:	00b55733          	srl	a4,a0,a1
    1b04:	e781                	bnez	a5,1b0c <SystemCoreClockUpdate+0x5a>
    1b06:	dcefe0ef          	jal	ra,d4 <__udivsi3>
    1b0a:	872a                	mv	a4,a0
    1b0c:	c018                	sw	a4,0(s0)
    1b0e:	d9cfe06f          	j	aa <__riscv_restore_0>
    1b12:	435c                	lw	a5,4(a4)
    1b14:	02dc77b7          	lui	a5,0x2dc7
    1b18:	c0078793          	addi	a5,a5,-1024 # 2dc6c00 <_data_lma+0x2dc3248>
    1b1c:	bf7d                	j	1ada <SystemCoreClockUpdate+0x28>

00001b1e <TIM1_Init>:
    1b1e:	d82fe2ef          	jal	t0,a0 <__riscv_save_0>
    1b22:	84aa                	mv	s1,a0
    1b24:	6505                	lui	a0,0x1
    1b26:	fd810113          	addi	sp,sp,-40
    1b2a:	842e                	mv	s0,a1
    1b2c:	80050513          	addi	a0,a0,-2048 # 800 <Screen_spi_write+0x2e>
    1b30:	4585                	li	a1,1
    1b32:	c032                	sw	a2,0(sp)
    1b34:	cc02                	sw	zero,24(sp)
    1b36:	ce02                	sw	zero,28(sp)
    1b38:	d002                	sw	zero,32(sp)
    1b3a:	d202                	sw	zero,36(sp)
    1b3c:	c602                	sw	zero,12(sp)
    1b3e:	c802                	sw	zero,16(sp)
    1b40:	00011a23          	sh	zero,20(sp)
    1b44:	760000ef          	jal	ra,22a4 <RCC_APB2PeriphClockCmd>
    1b48:	8660                	sh	s0,12(sp)
    1b4a:	40013437          	lui	s0,0x40013
    1b4e:	006c                	addi	a1,sp,12
    1b50:	c0040513          	addi	a0,s0,-1024 # 40012c00 <__global_pointer$+0x20012368>
    1b54:	80e4                	sh	s1,16(sp)
    1b56:	00011923          	sh	zero,18(sp)
    1b5a:	00011723          	sh	zero,14(sp)
    1b5e:	0db000ef          	jal	ra,2438 <TIM_TimeBaseInit>
    1b62:	67c1                	lui	a5,0x10
    1b64:	07078793          	addi	a5,a5,112 # 10070 <_data_lma+0xc6b8>
    1b68:	4602                	lw	a2,0(sp)
    1b6a:	cc3e                	sw	a5,24(sp)
    1b6c:	4791                	li	a5,4
    1b6e:	86fc                	sh	a5,28(sp)
    1b70:	000807b7          	lui	a5,0x80
    1b74:	0789                	addi	a5,a5,2
    1b76:	082c                	addi	a1,sp,24
    1b78:	c0040513          	addi	a0,s0,-1024
    1b7c:	d03e                	sw	a5,32(sp)
    1b7e:	87f0                	sh	a2,30(sp)
    1b80:	107000ef          	jal	ra,2486 <TIM_OC1Init>
    1b84:	c0040513          	addi	a0,s0,-1024
    1b88:	4581                	li	a1,0
    1b8a:	33d000ef          	jal	ra,26c6 <TIM_OC1PreloadConfig>
    1b8e:	082c                	addi	a1,sp,24
    1b90:	c0040513          	addi	a0,s0,-1024
    1b94:	15d000ef          	jal	ra,24f0 <TIM_OC2Init>
    1b98:	c0040513          	addi	a0,s0,-1024
    1b9c:	4581                	li	a1,0
    1b9e:	337000ef          	jal	ra,26d4 <TIM_OC2PreloadConfig>
    1ba2:	082c                	addi	a1,sp,24
    1ba4:	c0040513          	addi	a0,s0,-1024
    1ba8:	00011e23          	sh	zero,28(sp)
    1bac:	1db000ef          	jal	ra,2586 <TIM_OC3Init>
    1bb0:	c0040513          	addi	a0,s0,-1024
    1bb4:	4581                	li	a1,0
    1bb6:	335000ef          	jal	ra,26ea <TIM_OC3PreloadConfig>
    1bba:	c0040513          	addi	a0,s0,-1024
    1bbe:	4585                	li	a1,1
    1bc0:	2ed000ef          	jal	ra,26ac <TIM_ARRPreloadConfig>
    1bc4:	c0040513          	addi	a0,s0,-1024
    1bc8:	4585                	li	a1,1
    1bca:	27f000ef          	jal	ra,2648 <TIM_CtrlPWMOutputs>
    1bce:	c0040513          	addi	a0,s0,-1024
    1bd2:	4585                	li	a1,1
    1bd4:	25d000ef          	jal	ra,2630 <TIM_Cmd>
    1bd8:	4605                	li	a2,1
    1bda:	4585                	li	a1,1
    1bdc:	c0040513          	addi	a0,s0,-1024
    1be0:	27f000ef          	jal	ra,265e <TIM_ITConfig>
    1be4:	02300793          	li	a5,35
    1be8:	827c                	sh	a5,4(sp)
    1bea:	0048                	addi	a0,sp,4
    1bec:	4785                	li	a5,1
    1bee:	c43e                	sw	a5,8(sp)
    1bf0:	00010323          	sb	zero,6(sp)
    1bf4:	2b9d                	jal	216a <NVIC_Init>
    1bf6:	4585                	li	a1,1
    1bf8:	c0040513          	addi	a0,s0,-1024
    1bfc:	369000ef          	jal	ra,2764 <TIM_ClearFlag>
    1c00:	02810113          	addi	sp,sp,40
    1c04:	ca6fe06f          	j	aa <__riscv_restore_0>

00001c08 <TIM2_Init>:
    1c08:	c98fe2ef          	jal	t0,a0 <__riscv_save_0>
    1c0c:	1101                	addi	sp,sp,-32
    1c0e:	842a                	mv	s0,a0
    1c10:	84ae                	mv	s1,a1
    1c12:	4505                	li	a0,1
    1c14:	4585                	li	a1,1
    1c16:	2575                	jal	22c2 <RCC_APB1PeriphClockCmd>
    1c18:	0028                	addi	a0,sp,8
    1c1a:	201000ef          	jal	ra,261a <TIM_TimeBaseStructInit>
    1c1e:	002c                	addi	a1,sp,8
    1c20:	40000537          	lui	a0,0x40000
    1c24:	8464                	sh	s1,8(sp)
    1c26:	8660                	sh	s0,12(sp)
    1c28:	00011723          	sh	zero,14(sp)
    1c2c:	00011523          	sh	zero,10(sp)
    1c30:	00010823          	sb	zero,16(sp)
    1c34:	005000ef          	jal	ra,2438 <TIM_TimeBaseInit>
    1c38:	4681                	li	a3,0
    1c3a:	4601                	li	a2,0
    1c3c:	458d                	li	a1,3
    1c3e:	40000537          	lui	a0,0x40000
    1c42:	22f000ef          	jal	ra,2670 <TIM_EncoderInterfaceConfig>
    1c46:	4791                	li	a5,4
    1c48:	4405                	li	s0,1
    1c4a:	ca3e                	sw	a5,20(sp)
    1c4c:	084c                	addi	a1,sp,20
    1c4e:	47a9                	li	a5,10
    1c50:	40000537          	lui	a0,0x40000
    1c54:	86fc                	sh	a5,28(sp)
    1c56:	cc22                	sw	s0,24(sp)
    1c58:	2d5000ef          	jal	ra,272c <TIM_ICInit>
    1c5c:	4585                	li	a1,1
    1c5e:	40000537          	lui	a0,0x40000
    1c62:	327000ef          	jal	ra,2788 <TIM_ClearITPendingBit>
    1c66:	4605                	li	a2,1
    1c68:	4585                	li	a1,1
    1c6a:	40000537          	lui	a0,0x40000
    1c6e:	1f1000ef          	jal	ra,265e <TIM_ITConfig>
    1c72:	02600793          	li	a5,38
    1c76:	850a                	mv	a0,sp
    1c78:	807c                	sh	a5,0(sp)
    1c7a:	c222                	sw	s0,4(sp)
    1c7c:	00010123          	sb	zero,2(sp)
    1c80:	21ed                	jal	216a <NVIC_Init>
    1c82:	4581                	li	a1,0
    1c84:	40000537          	lui	a0,0x40000
    1c88:	271000ef          	jal	ra,26f8 <TIM_SetCounter>
    1c8c:	4585                	li	a1,1
    1c8e:	40000537          	lui	a0,0x40000
    1c92:	19f000ef          	jal	ra,2630 <TIM_Cmd>
    1c96:	6105                	addi	sp,sp,32
    1c98:	c12fe06f          	j	aa <__riscv_restore_0>

00001c9c <IWDG_Feed_Init>:
    1c9c:	c04fe2ef          	jal	t0,a0 <__riscv_save_0>
    1ca0:	842a                	mv	s0,a0
    1ca2:	6515                	lui	a0,0x5
    1ca4:	1171                	addi	sp,sp,-4
    1ca6:	55550513          	addi	a0,a0,1365 # 5555 <_data_lma+0x1b9d>
    1caa:	c02e                	sw	a1,0(sp)
    1cac:	29ad                	jal	2126 <IWDG_WriteAccessCmd>
    1cae:	0ff47513          	andi	a0,s0,255
    1cb2:	29b5                	jal	212e <IWDG_SetPrescaler>
    1cb4:	4582                	lw	a1,0(sp)
    1cb6:	852e                	mv	a0,a1
    1cb8:	29bd                	jal	2136 <IWDG_SetReload>
    1cba:	2151                	jal	213e <IWDG_ReloadCounter>
    1cbc:	2941                	jal	214c <IWDG_Enable>
    1cbe:	0111                	addi	sp,sp,4
    1cc0:	beafe06f          	j	aa <__riscv_restore_0>

00001cc4 <ADC1_IRQHandler>:
    1cc4:	a001                	j	1cc4 <ADC1_IRQHandler>

00001cc6 <handle_reset>:
    1cc6:	1ffff197          	auipc	gp,0x1ffff
    1cca:	bd218193          	addi	gp,gp,-1070 # 20000898 <__global_pointer$>
    1cce:	f6818113          	addi	sp,gp,-152 # 20000800 <_eusrstack>
    1cd2:	00002517          	auipc	a0,0x2
    1cd6:	ce650513          	addi	a0,a0,-794 # 39b8 <_data_lma>
    1cda:	1fffe597          	auipc	a1,0x1fffe
    1cde:	32658593          	addi	a1,a1,806 # 20000000 <_data_vma>
    1ce2:	1fffe617          	auipc	a2,0x1fffe
    1ce6:	3b660613          	addi	a2,a2,950 # 20000098 <_edata>
    1cea:	00c5fa63          	bgeu	a1,a2,1cfe <handle_reset+0x38>
    1cee:	00052283          	lw	t0,0(a0)
    1cf2:	0055a023          	sw	t0,0(a1)
    1cf6:	0511                	addi	a0,a0,4
    1cf8:	0591                	addi	a1,a1,4
    1cfa:	fec5eae3          	bltu	a1,a2,1cee <handle_reset+0x28>
    1cfe:	1fffe517          	auipc	a0,0x1fffe
    1d02:	39a50513          	addi	a0,a0,922 # 20000098 <_edata>
    1d06:	99818593          	addi	a1,gp,-1640 # 20000230 <_ebss>
    1d0a:	00b57763          	bgeu	a0,a1,1d18 <handle_reset+0x52>
    1d0e:	00052023          	sw	zero,0(a0)
    1d12:	0511                	addi	a0,a0,4
    1d14:	feb56de3          	bltu	a0,a1,1d0e <handle_reset+0x48>
    1d18:	000022b7          	lui	t0,0x2
    1d1c:	88028293          	addi	t0,t0,-1920 # 1880 <EXTI7_0_IRQHandler+0xd2>
    1d20:	30029073          	csrw	mstatus,t0
    1d24:	428d                	li	t0,3
    1d26:	80429073          	csrw	0x804,t0
    1d2a:	ffffe297          	auipc	t0,0xffffe
    1d2e:	2d628293          	addi	t0,t0,726 # 0 <_sinit>
    1d32:	0032e293          	ori	t0,t0,3
    1d36:	30529073          	csrw	mtvec,t0
    1d3a:	c93ff0ef          	jal	ra,19cc <SystemInit>
    1d3e:	00000297          	auipc	t0,0x0
    1d42:	be828293          	addi	t0,t0,-1048 # 1926 <main>
    1d46:	34129073          	csrw	mepc,t0
    1d4a:	30200073          	mret

00001d4e <ADC_DeInit>:
    1d4e:	400127b7          	lui	a5,0x40012
    1d52:	40078793          	addi	a5,a5,1024 # 40012400 <__global_pointer$+0x20011b68>
    1d56:	00f51e63          	bne	a0,a5,1d72 <ADC_DeInit+0x24>
    1d5a:	b46fe2ef          	jal	t0,a0 <__riscv_save_0>
    1d5e:	4585                	li	a1,1
    1d60:	20000513          	li	a0,512
    1d64:	2bb5                	jal	22e0 <RCC_APB2PeriphResetCmd>
    1d66:	4581                	li	a1,0
    1d68:	20000513          	li	a0,512
    1d6c:	2b95                	jal	22e0 <RCC_APB2PeriphResetCmd>
    1d6e:	b3cfe06f          	j	aa <__riscv_restore_0>
    1d72:	8082                	ret

00001d74 <ADC_Init>:
    1d74:	415c                	lw	a5,4(a0)
    1d76:	fff10737          	lui	a4,0xfff10
    1d7a:	eff70713          	addi	a4,a4,-257 # fff0feff <__global_pointer$+0xdff0f667>
    1d7e:	8f7d                	and	a4,a4,a5
    1d80:	41dc                	lw	a5,4(a1)
    1d82:	4194                	lw	a3,0(a1)
    1d84:	07a2                	slli	a5,a5,0x8
    1d86:	8fd5                	or	a5,a5,a3
    1d88:	8fd9                	or	a5,a5,a4
    1d8a:	c15c                	sw	a5,4(a0)
    1d8c:	451c                	lw	a5,8(a0)
    1d8e:	fff1f737          	lui	a4,0xfff1f
    1d92:	7fd70713          	addi	a4,a4,2045 # fff1f7fd <__global_pointer$+0xdff1ef65>
    1d96:	45d4                	lw	a3,12(a1)
    1d98:	8f7d                	and	a4,a4,a5
    1d9a:	499c                	lw	a5,16(a1)
    1d9c:	8fd5                	or	a5,a5,a3
    1d9e:	4594                	lw	a3,8(a1)
    1da0:	0686                	slli	a3,a3,0x1
    1da2:	8fd5                	or	a5,a5,a3
    1da4:	8fd9                	or	a5,a5,a4
    1da6:	c51c                	sw	a5,8(a0)
    1da8:	555c                	lw	a5,44(a0)
    1daa:	ff100737          	lui	a4,0xff100
    1dae:	177d                	addi	a4,a4,-1
    1db0:	8f7d                	and	a4,a4,a5
    1db2:	29dc                	lbu	a5,20(a1)
    1db4:	17fd                	addi	a5,a5,-1
    1db6:	0ff7f793          	andi	a5,a5,255
    1dba:	07d2                	slli	a5,a5,0x14
    1dbc:	8fd9                	or	a5,a5,a4
    1dbe:	d55c                	sw	a5,44(a0)
    1dc0:	8082                	ret

00001dc2 <ADC_Cmd>:
    1dc2:	451c                	lw	a5,8(a0)
    1dc4:	c589                	beqz	a1,1dce <ADC_Cmd+0xc>
    1dc6:	0017e793          	ori	a5,a5,1
    1dca:	c51c                	sw	a5,8(a0)
    1dcc:	8082                	ret
    1dce:	9bf9                	andi	a5,a5,-2
    1dd0:	bfed                	j	1dca <ADC_Cmd+0x8>

00001dd2 <ADC_DMACmd>:
    1dd2:	451c                	lw	a5,8(a0)
    1dd4:	c589                	beqz	a1,1dde <ADC_DMACmd+0xc>
    1dd6:	1007e793          	ori	a5,a5,256
    1dda:	c51c                	sw	a5,8(a0)
    1ddc:	8082                	ret
    1dde:	eff7f793          	andi	a5,a5,-257
    1de2:	bfe5                	j	1dda <ADC_DMACmd+0x8>

00001de4 <ADC_ResetCalibration>:
    1de4:	451c                	lw	a5,8(a0)
    1de6:	0087e793          	ori	a5,a5,8
    1dea:	c51c                	sw	a5,8(a0)
    1dec:	8082                	ret

00001dee <ADC_GetResetCalibrationStatus>:
    1dee:	4508                	lw	a0,8(a0)
    1df0:	810d                	srli	a0,a0,0x3
    1df2:	8905                	andi	a0,a0,1
    1df4:	8082                	ret

00001df6 <ADC_StartCalibration>:
    1df6:	451c                	lw	a5,8(a0)
    1df8:	0047e793          	ori	a5,a5,4
    1dfc:	c51c                	sw	a5,8(a0)
    1dfe:	8082                	ret

00001e00 <ADC_GetCalibrationStatus>:
    1e00:	4508                	lw	a0,8(a0)
    1e02:	8109                	srli	a0,a0,0x2
    1e04:	8905                	andi	a0,a0,1
    1e06:	8082                	ret

00001e08 <ADC_SoftwareStartConvCmd>:
    1e08:	451c                	lw	a5,8(a0)
    1e0a:	c591                	beqz	a1,1e16 <ADC_SoftwareStartConvCmd+0xe>
    1e0c:	00500737          	lui	a4,0x500
    1e10:	8fd9                	or	a5,a5,a4
    1e12:	c51c                	sw	a5,8(a0)
    1e14:	8082                	ret
    1e16:	ffb00737          	lui	a4,0xffb00
    1e1a:	177d                	addi	a4,a4,-1
    1e1c:	8ff9                	and	a5,a5,a4
    1e1e:	bfd5                	j	1e12 <ADC_SoftwareStartConvCmd+0xa>

00001e20 <ADC_RegularChannelConfig>:
    1e20:	47a5                	li	a5,9
    1e22:	04b7f863          	bgeu	a5,a1,1e72 <ADC_RegularChannelConfig+0x52>
    1e26:	ff658713          	addi	a4,a1,-10
    1e2a:	00171793          	slli	a5,a4,0x1
    1e2e:	00c52283          	lw	t0,12(a0)
    1e32:	97ba                	add	a5,a5,a4
    1e34:	431d                	li	t1,7
    1e36:	00f31333          	sll	t1,t1,a5
    1e3a:	fff34313          	not	t1,t1
    1e3e:	00537333          	and	t1,t1,t0
    1e42:	00f697b3          	sll	a5,a3,a5
    1e46:	0067e7b3          	or	a5,a5,t1
    1e4a:	c55c                	sw	a5,12(a0)
    1e4c:	4799                	li	a5,6
    1e4e:	04c7e363          	bltu	a5,a2,1e94 <ADC_RegularChannelConfig+0x74>
    1e52:	167d                	addi	a2,a2,-1
    1e54:	00261793          	slli	a5,a2,0x2
    1e58:	963e                	add	a2,a2,a5
    1e5a:	5958                	lw	a4,52(a0)
    1e5c:	47fd                	li	a5,31
    1e5e:	00c797b3          	sll	a5,a5,a2
    1e62:	fff7c793          	not	a5,a5
    1e66:	8ff9                	and	a5,a5,a4
    1e68:	00c595b3          	sll	a1,a1,a2
    1e6c:	8ddd                	or	a1,a1,a5
    1e6e:	d94c                	sw	a1,52(a0)
    1e70:	8082                	ret
    1e72:	00159793          	slli	a5,a1,0x1
    1e76:	01052303          	lw	t1,16(a0)
    1e7a:	97ae                	add	a5,a5,a1
    1e7c:	471d                	li	a4,7
    1e7e:	00f71733          	sll	a4,a4,a5
    1e82:	fff74713          	not	a4,a4
    1e86:	00677733          	and	a4,a4,t1
    1e8a:	00f697b3          	sll	a5,a3,a5
    1e8e:	8f5d                	or	a4,a4,a5
    1e90:	c918                	sw	a4,16(a0)
    1e92:	bf6d                	j	1e4c <ADC_RegularChannelConfig+0x2c>
    1e94:	47b1                	li	a5,12
    1e96:	02c7e263          	bltu	a5,a2,1eba <ADC_RegularChannelConfig+0x9a>
    1e9a:	1665                	addi	a2,a2,-7
    1e9c:	00261793          	slli	a5,a2,0x2
    1ea0:	963e                	add	a2,a2,a5
    1ea2:	5918                	lw	a4,48(a0)
    1ea4:	47fd                	li	a5,31
    1ea6:	00c797b3          	sll	a5,a5,a2
    1eaa:	fff7c793          	not	a5,a5
    1eae:	8ff9                	and	a5,a5,a4
    1eb0:	00c595b3          	sll	a1,a1,a2
    1eb4:	8ddd                	or	a1,a1,a5
    1eb6:	d90c                	sw	a1,48(a0)
    1eb8:	8082                	ret
    1eba:	164d                	addi	a2,a2,-13
    1ebc:	00261713          	slli	a4,a2,0x2
    1ec0:	5554                	lw	a3,44(a0)
    1ec2:	963a                	add	a2,a2,a4
    1ec4:	47fd                	li	a5,31
    1ec6:	00c797b3          	sll	a5,a5,a2
    1eca:	fff7c793          	not	a5,a5
    1ece:	8ff5                	and	a5,a5,a3
    1ed0:	00c595b3          	sll	a1,a1,a2
    1ed4:	8ddd                	or	a1,a1,a5
    1ed6:	d54c                	sw	a1,44(a0)
    1ed8:	8082                	ret

00001eda <ADC_Calibration_Vol>:
    1eda:	415c                	lw	a5,4(a0)
    1edc:	fa000737          	lui	a4,0xfa000
    1ee0:	177d                	addi	a4,a4,-1
    1ee2:	8ff9                	and	a5,a5,a4
    1ee4:	c15c                	sw	a5,4(a0)
    1ee6:	415c                	lw	a5,4(a0)
    1ee8:	8ddd                	or	a1,a1,a5
    1eea:	c14c                	sw	a1,4(a0)
    1eec:	8082                	ret

00001eee <DMA_DeInit>:
    1eee:	411c                	lw	a5,0(a0)
    1ef0:	6741                	lui	a4,0x10
    1ef2:	1779                	addi	a4,a4,-2
    1ef4:	8ff9                	and	a5,a5,a4
    1ef6:	c11c                	sw	a5,0(a0)
    1ef8:	00052023          	sw	zero,0(a0)
    1efc:	00052223          	sw	zero,4(a0)
    1f00:	00052423          	sw	zero,8(a0)
    1f04:	400207b7          	lui	a5,0x40020
    1f08:	00052623          	sw	zero,12(a0)
    1f0c:	00878713          	addi	a4,a5,8 # 40020008 <__global_pointer$+0x2001f770>
    1f10:	00e51763          	bne	a0,a4,1f1e <DMA_DeInit+0x30>
    1f14:	43d8                	lw	a4,4(a5)
    1f16:	00f76713          	ori	a4,a4,15
    1f1a:	c3d8                	sw	a4,4(a5)
    1f1c:	8082                	ret
    1f1e:	01c78713          	addi	a4,a5,28
    1f22:	00e51663          	bne	a0,a4,1f2e <DMA_DeInit+0x40>
    1f26:	43d8                	lw	a4,4(a5)
    1f28:	0f076713          	ori	a4,a4,240
    1f2c:	b7fd                	j	1f1a <DMA_DeInit+0x2c>
    1f2e:	03078713          	addi	a4,a5,48
    1f32:	00e51863          	bne	a0,a4,1f42 <DMA_DeInit+0x54>
    1f36:	43d8                	lw	a4,4(a5)
    1f38:	6685                	lui	a3,0x1
    1f3a:	f0068693          	addi	a3,a3,-256 # f00 <Screen_Clear+0x12c>
    1f3e:	8f55                	or	a4,a4,a3
    1f40:	bfe9                	j	1f1a <DMA_DeInit+0x2c>
    1f42:	04478713          	addi	a4,a5,68
    1f46:	00e51563          	bne	a0,a4,1f50 <DMA_DeInit+0x62>
    1f4a:	43d8                	lw	a4,4(a5)
    1f4c:	66bd                	lui	a3,0xf
    1f4e:	bfc5                	j	1f3e <DMA_DeInit+0x50>
    1f50:	05878713          	addi	a4,a5,88
    1f54:	00e51663          	bne	a0,a4,1f60 <DMA_DeInit+0x72>
    1f58:	43d8                	lw	a4,4(a5)
    1f5a:	000f06b7          	lui	a3,0xf0
    1f5e:	b7c5                	j	1f3e <DMA_DeInit+0x50>
    1f60:	06c78713          	addi	a4,a5,108
    1f64:	00e51663          	bne	a0,a4,1f70 <DMA_DeInit+0x82>
    1f68:	43d8                	lw	a4,4(a5)
    1f6a:	00f006b7          	lui	a3,0xf00
    1f6e:	bfc1                	j	1f3e <DMA_DeInit+0x50>
    1f70:	08078713          	addi	a4,a5,128
    1f74:	fae514e3          	bne	a0,a4,1f1c <DMA_DeInit+0x2e>
    1f78:	43d8                	lw	a4,4(a5)
    1f7a:	0f0006b7          	lui	a3,0xf000
    1f7e:	b7c1                	j	1f3e <DMA_DeInit+0x50>

00001f80 <DMA_Init>:
    1f80:	4118                	lw	a4,0(a0)
    1f82:	77e1                	lui	a5,0xffff8
    1f84:	07bd                	addi	a5,a5,15
    1f86:	5194                	lw	a3,32(a1)
    1f88:	8f7d                	and	a4,a4,a5
    1f8a:	459c                	lw	a5,8(a1)
    1f8c:	8fd5                	or	a5,a5,a3
    1f8e:	4994                	lw	a3,16(a1)
    1f90:	8fd5                	or	a5,a5,a3
    1f92:	49d4                	lw	a3,20(a1)
    1f94:	8fd5                	or	a5,a5,a3
    1f96:	4d94                	lw	a3,24(a1)
    1f98:	8fd5                	or	a5,a5,a3
    1f9a:	4dd4                	lw	a3,28(a1)
    1f9c:	8fd5                	or	a5,a5,a3
    1f9e:	51d4                	lw	a3,36(a1)
    1fa0:	8fd5                	or	a5,a5,a3
    1fa2:	5594                	lw	a3,40(a1)
    1fa4:	8fd5                	or	a5,a5,a3
    1fa6:	8fd9                	or	a5,a5,a4
    1fa8:	c11c                	sw	a5,0(a0)
    1faa:	45dc                	lw	a5,12(a1)
    1fac:	c15c                	sw	a5,4(a0)
    1fae:	419c                	lw	a5,0(a1)
    1fb0:	c51c                	sw	a5,8(a0)
    1fb2:	41dc                	lw	a5,4(a1)
    1fb4:	c55c                	sw	a5,12(a0)
    1fb6:	8082                	ret

00001fb8 <DMA_Cmd>:
    1fb8:	411c                	lw	a5,0(a0)
    1fba:	c589                	beqz	a1,1fc4 <DMA_Cmd+0xc>
    1fbc:	0017e793          	ori	a5,a5,1
    1fc0:	c11c                	sw	a5,0(a0)
    1fc2:	8082                	ret
    1fc4:	6741                	lui	a4,0x10
    1fc6:	1779                	addi	a4,a4,-2
    1fc8:	8ff9                	and	a5,a5,a4
    1fca:	bfdd                	j	1fc0 <DMA_Cmd+0x8>

00001fcc <DMA_ITConfig>:
    1fcc:	411c                	lw	a5,0(a0)
    1fce:	c601                	beqz	a2,1fd6 <DMA_ITConfig+0xa>
    1fd0:	8ddd                	or	a1,a1,a5
    1fd2:	c10c                	sw	a1,0(a0)
    1fd4:	8082                	ret
    1fd6:	fff5c593          	not	a1,a1
    1fda:	8dfd                	and	a1,a1,a5
    1fdc:	bfdd                	j	1fd2 <DMA_ITConfig+0x6>

00001fde <DMA_GetFlagStatus>:
    1fde:	400207b7          	lui	a5,0x40020
    1fe2:	439c                	lw	a5,0(a5)
    1fe4:	8d7d                	and	a0,a0,a5
    1fe6:	00a03533          	snez	a0,a0
    1fea:	8082                	ret

00001fec <DMA_ClearFlag>:
    1fec:	400207b7          	lui	a5,0x40020
    1ff0:	c3c8                	sw	a0,4(a5)
    1ff2:	8082                	ret

00001ff4 <DMA_GetITStatus>:
    1ff4:	8acfe2ef          	jal	t0,a0 <__riscv_save_0>
    1ff8:	37dd                	jal	1fde <DMA_GetFlagStatus>
    1ffa:	8b0fe06f          	j	aa <__riscv_restore_0>

00001ffe <DMA_ClearITPendingBit>:
    1ffe:	400207b7          	lui	a5,0x40020
    2002:	c3c8                	sw	a0,4(a5)
    2004:	8082                	ret

00002006 <EXTI_Init>:
    2006:	4158                	lw	a4,4(a0)
    2008:	00052303          	lw	t1,0(a0)
    200c:	454c                	lw	a1,12(a0)
    200e:	40010637          	lui	a2,0x40010
    2012:	40060793          	addi	a5,a2,1024 # 40010400 <__global_pointer$+0x2000fb68>
    2016:	973e                	add	a4,a4,a5
    2018:	fff34693          	not	a3,t1
    201c:	c5b1                	beqz	a1,2068 <EXTI_Init+0x62>
    201e:	40062583          	lw	a1,1024(a2)
    2022:	8df5                	and	a1,a1,a3
    2024:	40b62023          	sw	a1,1024(a2)
    2028:	43d0                	lw	a2,4(a5)
    202a:	8ef1                	and	a3,a3,a2
    202c:	c3d4                	sw	a3,4(a5)
    202e:	4314                	lw	a3,0(a4)
    2030:	0066e6b3          	or	a3,a3,t1
    2034:	c314                	sw	a3,0(a4)
    2036:	4118                	lw	a4,0(a0)
    2038:	4790                	lw	a2,8(a5)
    203a:	fff74693          	not	a3,a4
    203e:	8e75                	and	a2,a2,a3
    2040:	c790                	sw	a2,8(a5)
    2042:	47d0                	lw	a2,12(a5)
    2044:	8ef1                	and	a3,a3,a2
    2046:	c7d4                	sw	a3,12(a5)
    2048:	4514                	lw	a3,8(a0)
    204a:	4641                	li	a2,16
    204c:	00c69963          	bne	a3,a2,205e <EXTI_Init+0x58>
    2050:	4794                	lw	a3,8(a5)
    2052:	8ed9                	or	a3,a3,a4
    2054:	c794                	sw	a3,8(a5)
    2056:	47d4                	lw	a3,12(a5)
    2058:	8f55                	or	a4,a4,a3
    205a:	c7d8                	sw	a4,12(a5)
    205c:	8082                	ret
    205e:	97b6                	add	a5,a5,a3
    2060:	4394                	lw	a3,0(a5)
    2062:	8f55                	or	a4,a4,a3
    2064:	c398                	sw	a4,0(a5)
    2066:	8082                	ret
    2068:	431c                	lw	a5,0(a4)
    206a:	8ff5                	and	a5,a5,a3
    206c:	c31c                	sw	a5,0(a4)
    206e:	8082                	ret

00002070 <EXTI_GetITStatus>:
    2070:	400107b7          	lui	a5,0x40010
    2074:	40078713          	addi	a4,a5,1024 # 40010400 <__global_pointer$+0x2000fb68>
    2078:	4007a783          	lw	a5,1024(a5)
    207c:	4b58                	lw	a4,20(a4)
    207e:	8f69                	and	a4,a4,a0
    2080:	c709                	beqz	a4,208a <EXTI_GetITStatus+0x1a>
    2082:	8d7d                	and	a0,a0,a5
    2084:	00a03533          	snez	a0,a0
    2088:	8082                	ret
    208a:	4501                	li	a0,0
    208c:	8082                	ret

0000208e <EXTI_ClearITPendingBit>:
    208e:	400107b7          	lui	a5,0x40010
    2092:	40a7aa23          	sw	a0,1044(a5) # 40010414 <__global_pointer$+0x2000fb7c>
    2096:	8082                	ret

00002098 <GPIO_Init>:
    2098:	4594                	lw	a3,8(a1)
    209a:	0106f793          	andi	a5,a3,16
    209e:	00f6f293          	andi	t0,a3,15
    20a2:	c781                	beqz	a5,20aa <GPIO_Init+0x12>
    20a4:	41dc                	lw	a5,4(a1)
    20a6:	00f2e2b3          	or	t0,t0,a5
    20aa:	0005d383          	lhu	t2,0(a1)
    20ae:	0ff3f793          	andi	a5,t2,255
    20b2:	c3a5                	beqz	a5,2112 <GPIO_Init+0x7a>
    20b4:	00052303          	lw	t1,0(a0)
    20b8:	1161                	addi	sp,sp,-8
    20ba:	c222                	sw	s0,4(sp)
    20bc:	c026                	sw	s1,0(sp)
    20be:	4781                	li	a5,0
    20c0:	02800413          	li	s0,40
    20c4:	04800493          	li	s1,72
    20c8:	4705                	li	a4,1
    20ca:	00f71633          	sll	a2,a4,a5
    20ce:	00c3f733          	and	a4,t2,a2
    20d2:	02e61263          	bne	a2,a4,20f6 <GPIO_Init+0x5e>
    20d6:	00279593          	slli	a1,a5,0x2
    20da:	473d                	li	a4,15
    20dc:	00b71733          	sll	a4,a4,a1
    20e0:	fff74713          	not	a4,a4
    20e4:	00677333          	and	t1,a4,t1
    20e8:	00b295b3          	sll	a1,t0,a1
    20ec:	0065e333          	or	t1,a1,t1
    20f0:	00869d63          	bne	a3,s0,210a <GPIO_Init+0x72>
    20f4:	c950                	sw	a2,20(a0)
    20f6:	0785                	addi	a5,a5,1
    20f8:	4721                	li	a4,8
    20fa:	fce797e3          	bne	a5,a4,20c8 <GPIO_Init+0x30>
    20fe:	4412                	lw	s0,4(sp)
    2100:	00652023          	sw	t1,0(a0)
    2104:	4482                	lw	s1,0(sp)
    2106:	0121                	addi	sp,sp,8
    2108:	8082                	ret
    210a:	fe9696e3          	bne	a3,s1,20f6 <GPIO_Init+0x5e>
    210e:	c910                	sw	a2,16(a0)
    2110:	b7dd                	j	20f6 <GPIO_Init+0x5e>
    2112:	8082                	ret

00002114 <GPIO_ReadInputDataBit>:
    2114:	4508                	lw	a0,8(a0)
    2116:	8d6d                	and	a0,a0,a1
    2118:	00a03533          	snez	a0,a0
    211c:	8082                	ret

0000211e <GPIO_SetBits>:
    211e:	c90c                	sw	a1,16(a0)
    2120:	8082                	ret

00002122 <GPIO_ResetBits>:
    2122:	c94c                	sw	a1,20(a0)
    2124:	8082                	ret

00002126 <IWDG_WriteAccessCmd>:
    2126:	400037b7          	lui	a5,0x40003
    212a:	c388                	sw	a0,0(a5)
    212c:	8082                	ret

0000212e <IWDG_SetPrescaler>:
    212e:	400037b7          	lui	a5,0x40003
    2132:	c3c8                	sw	a0,4(a5)
    2134:	8082                	ret

00002136 <IWDG_SetReload>:
    2136:	400037b7          	lui	a5,0x40003
    213a:	c788                	sw	a0,8(a5)
    213c:	8082                	ret

0000213e <IWDG_ReloadCounter>:
    213e:	67ad                	lui	a5,0xb
    2140:	40003737          	lui	a4,0x40003
    2144:	aaa78793          	addi	a5,a5,-1366 # aaaa <_data_lma+0x70f2>
    2148:	c31c                	sw	a5,0(a4)
    214a:	8082                	ret

0000214c <IWDG_Enable>:
    214c:	67b5                	lui	a5,0xd
    214e:	40003737          	lui	a4,0x40003
    2152:	ccc78793          	addi	a5,a5,-820 # cccc <_data_lma+0x9314>
    2156:	c31c                	sw	a5,0(a4)
    2158:	40021737          	lui	a4,0x40021
    215c:	535c                	lw	a5,36(a4)
    215e:	8b89                	andi	a5,a5,2
    2160:	dff5                	beqz	a5,215c <IWDG_Enable+0x10>
    2162:	8082                	ret

00002164 <NVIC_PriorityGroupConfig>:
    2164:	98a1a823          	sw	a0,-1648(gp) # 20000228 <NVIC_Priority_Group>
    2168:	8082                	ret

0000216a <NVIC_Init>:
    216a:	9901a683          	lw	a3,-1648(gp) # 20000228 <NVIC_Priority_Group>
    216e:	4785                	li	a5,1
    2170:	2118                	lbu	a4,0(a0)
    2172:	02f69063          	bne	a3,a5,2192 <NVIC_Init+0x28>
    2176:	311c                	lbu	a5,1(a0)
    2178:	02d79c63          	bne	a5,a3,21b0 <NVIC_Init+0x46>
    217c:	213c                	lbu	a5,2(a0)
    217e:	079a                	slli	a5,a5,0x6
    2180:	f807e793          	ori	a5,a5,-128
    2184:	e000e6b7          	lui	a3,0xe000e
    2188:	0ff7f793          	andi	a5,a5,255
    218c:	96ba                	add	a3,a3,a4
    218e:	40f68023          	sb	a5,1024(a3) # e000e400 <__global_pointer$+0xc000db68>
    2192:	4685                	li	a3,1
    2194:	00575793          	srli	a5,a4,0x5
    2198:	00e69733          	sll	a4,a3,a4
    219c:	4154                	lw	a3,4(a0)
    219e:	ce89                	beqz	a3,21b8 <NVIC_Init+0x4e>
    21a0:	04078793          	addi	a5,a5,64
    21a4:	078a                	slli	a5,a5,0x2
    21a6:	e000e6b7          	lui	a3,0xe000e
    21aa:	97b6                	add	a5,a5,a3
    21ac:	c398                	sw	a4,0(a5)
    21ae:	8082                	ret
    21b0:	f3ed                	bnez	a5,2192 <NVIC_Init+0x28>
    21b2:	213c                	lbu	a5,2(a0)
    21b4:	079a                	slli	a5,a5,0x6
    21b6:	b7f9                	j	2184 <NVIC_Init+0x1a>
    21b8:	06078793          	addi	a5,a5,96
    21bc:	b7e5                	j	21a4 <NVIC_Init+0x3a>

000021be <RCC_AdjustHSICalibrationValue>:
    21be:	40021737          	lui	a4,0x40021
    21c2:	431c                	lw	a5,0(a4)
    21c4:	050e                	slli	a0,a0,0x3
    21c6:	f077f793          	andi	a5,a5,-249
    21ca:	8d5d                	or	a0,a0,a5
    21cc:	c308                	sw	a0,0(a4)
    21ce:	8082                	ret

000021d0 <RCC_ADCCLKConfig>:
    21d0:	400216b7          	lui	a3,0x40021
    21d4:	42dc                	lw	a5,4(a3)
    21d6:	7741                	lui	a4,0xffff0
    21d8:	7ff70713          	addi	a4,a4,2047 # ffff07ff <__global_pointer$+0xdffeff67>
    21dc:	8ff9                	and	a5,a5,a4
    21de:	8d5d                	or	a0,a0,a5
    21e0:	c2c8                	sw	a0,4(a3)
    21e2:	8082                	ret

000021e4 <RCC_GetClocksFreq>:
    21e4:	ebdfd2ef          	jal	t0,a0 <__riscv_save_0>
    21e8:	40021737          	lui	a4,0x40021
    21ec:	435c                	lw	a5,4(a4)
    21ee:	4691                	li	a3,4
    21f0:	842a                	mv	s0,a0
    21f2:	8bb1                	andi	a5,a5,12
    21f4:	00d78563          	beq	a5,a3,21fe <RCC_GetClocksFreq+0x1a>
    21f8:	46a1                	li	a3,8
    21fa:	08d78063          	beq	a5,a3,227a <RCC_GetClocksFreq+0x96>
    21fe:	016e37b7          	lui	a5,0x16e3
    2202:	60078793          	addi	a5,a5,1536 # 16e3600 <_data_lma+0x16dfc48>
    2206:	c01c                	sw	a5,0(s0)
    2208:	400216b7          	lui	a3,0x40021
    220c:	42dc                	lw	a5,4(a3)
    220e:	8391                	srli	a5,a5,0x4
    2210:	00f7f713          	andi	a4,a5,15
    2214:	200007b7          	lui	a5,0x20000
    2218:	08478793          	addi	a5,a5,132 # 20000084 <APBAHBPrescTable>
    221c:	97ba                	add	a5,a5,a4
    221e:	238c                	lbu	a1,0(a5)
    2220:	42dc                	lw	a5,4(a3)
    2222:	4018                	lw	a4,0(s0)
    2224:	0ff5f593          	andi	a1,a1,255
    2228:	0807f793          	andi	a5,a5,128
    222c:	00b75533          	srl	a0,a4,a1
    2230:	e781                	bnez	a5,2238 <RCC_GetClocksFreq+0x54>
    2232:	853a                	mv	a0,a4
    2234:	ea1fd0ef          	jal	ra,d4 <__udivsi3>
    2238:	c048                	sw	a0,4(s0)
    223a:	c408                	sw	a0,8(s0)
    223c:	c448                	sw	a0,12(s0)
    223e:	400217b7          	lui	a5,0x40021
    2242:	43dc                	lw	a5,4(a5)
    2244:	468d                	li	a3,3
    2246:	83ad                	srli	a5,a5,0xb
    2248:	8bfd                	andi	a5,a5,31
    224a:	0037d713          	srli	a4,a5,0x3
    224e:	078a                	slli	a5,a5,0x2
    2250:	8bf1                	andi	a5,a5,28
    2252:	8fd9                	or	a5,a5,a4
    2254:	0137f613          	andi	a2,a5,19
    2258:	0037f713          	andi	a4,a5,3
    225c:	00c6f463          	bgeu	a3,a2,2264 <RCC_GetClocksFreq+0x80>
    2260:	ff478713          	addi	a4,a5,-12 # 40020ff4 <__global_pointer$+0x2002075c>
    2264:	200007b7          	lui	a5,0x20000
    2268:	07078793          	addi	a5,a5,112 # 20000070 <ADCPrescTable>
    226c:	97ba                	add	a5,a5,a4
    226e:	238c                	lbu	a1,0(a5)
    2270:	e65fd0ef          	jal	ra,d4 <__udivsi3>
    2274:	c808                	sw	a0,16(s0)
    2276:	e35fd06f          	j	aa <__riscv_restore_0>
    227a:	435c                	lw	a5,4(a4)
    227c:	02dc77b7          	lui	a5,0x2dc7
    2280:	c0078793          	addi	a5,a5,-1024 # 2dc6c00 <_data_lma+0x2dc3248>
    2284:	b749                	j	2206 <RCC_GetClocksFreq+0x22>

00002286 <RCC_AHBPeriphClockCmd>:
    2286:	c599                	beqz	a1,2294 <RCC_AHBPeriphClockCmd+0xe>
    2288:	40021737          	lui	a4,0x40021
    228c:	4b5c                	lw	a5,20(a4)
    228e:	8d5d                	or	a0,a0,a5
    2290:	cb48                	sw	a0,20(a4)
    2292:	8082                	ret
    2294:	400217b7          	lui	a5,0x40021
    2298:	4bd8                	lw	a4,20(a5)
    229a:	fff54513          	not	a0,a0
    229e:	8d79                	and	a0,a0,a4
    22a0:	cbc8                	sw	a0,20(a5)
    22a2:	8082                	ret

000022a4 <RCC_APB2PeriphClockCmd>:
    22a4:	c599                	beqz	a1,22b2 <RCC_APB2PeriphClockCmd+0xe>
    22a6:	40021737          	lui	a4,0x40021
    22aa:	4f1c                	lw	a5,24(a4)
    22ac:	8d5d                	or	a0,a0,a5
    22ae:	cf08                	sw	a0,24(a4)
    22b0:	8082                	ret
    22b2:	400217b7          	lui	a5,0x40021
    22b6:	4f98                	lw	a4,24(a5)
    22b8:	fff54513          	not	a0,a0
    22bc:	8d79                	and	a0,a0,a4
    22be:	cf88                	sw	a0,24(a5)
    22c0:	8082                	ret

000022c2 <RCC_APB1PeriphClockCmd>:
    22c2:	c599                	beqz	a1,22d0 <RCC_APB1PeriphClockCmd+0xe>
    22c4:	40021737          	lui	a4,0x40021
    22c8:	4f5c                	lw	a5,28(a4)
    22ca:	8d5d                	or	a0,a0,a5
    22cc:	cf48                	sw	a0,28(a4)
    22ce:	8082                	ret
    22d0:	400217b7          	lui	a5,0x40021
    22d4:	4fd8                	lw	a4,28(a5)
    22d6:	fff54513          	not	a0,a0
    22da:	8d79                	and	a0,a0,a4
    22dc:	cfc8                	sw	a0,28(a5)
    22de:	8082                	ret

000022e0 <RCC_APB2PeriphResetCmd>:
    22e0:	c599                	beqz	a1,22ee <RCC_APB2PeriphResetCmd+0xe>
    22e2:	40021737          	lui	a4,0x40021
    22e6:	475c                	lw	a5,12(a4)
    22e8:	8d5d                	or	a0,a0,a5
    22ea:	c748                	sw	a0,12(a4)
    22ec:	8082                	ret
    22ee:	400217b7          	lui	a5,0x40021
    22f2:	47d8                	lw	a4,12(a5)
    22f4:	fff54513          	not	a0,a0
    22f8:	8d79                	and	a0,a0,a4
    22fa:	c7c8                	sw	a0,12(a5)
    22fc:	8082                	ret

000022fe <SPI_Init>:
    22fe:	211a                	lhu	a4,0(a0)
    2300:	678d                	lui	a5,0x3
    2302:	04078793          	addi	a5,a5,64 # 3040 <print+0x21a>
    2306:	21b6                	lhu	a3,2(a1)
    2308:	8f7d                	and	a4,a4,a5
    230a:	219e                	lhu	a5,0(a1)
    230c:	8fd5                	or	a5,a5,a3
    230e:	21d6                	lhu	a3,4(a1)
    2310:	8fd5                	or	a5,a5,a3
    2312:	21f6                	lhu	a3,6(a1)
    2314:	8fd5                	or	a5,a5,a3
    2316:	2596                	lhu	a3,8(a1)
    2318:	8fd5                	or	a5,a5,a3
    231a:	25b6                	lhu	a3,10(a1)
    231c:	8fd5                	or	a5,a5,a3
    231e:	25d6                	lhu	a3,12(a1)
    2320:	8fd5                	or	a5,a5,a3
    2322:	25f6                	lhu	a3,14(a1)
    2324:	8fd5                	or	a5,a5,a3
    2326:	8fd9                	or	a5,a5,a4
    2328:	a11e                	sh	a5,0(a0)
    232a:	299e                	lhu	a5,16(a1)
    232c:	a91e                	sh	a5,16(a0)
    232e:	8082                	ret

00002330 <SPI_Cmd>:
    2330:	211e                	lhu	a5,0(a0)
    2332:	c589                	beqz	a1,233c <SPI_Cmd+0xc>
    2334:	0407e793          	ori	a5,a5,64
    2338:	a11e                	sh	a5,0(a0)
    233a:	8082                	ret
    233c:	07c2                	slli	a5,a5,0x10
    233e:	83c1                	srli	a5,a5,0x10
    2340:	fbf7f793          	andi	a5,a5,-65
    2344:	07c2                	slli	a5,a5,0x10
    2346:	83c1                	srli	a5,a5,0x10
    2348:	bfc5                	j	2338 <SPI_Cmd+0x8>

0000234a <SPI_I2S_DMACmd>:
    234a:	215e                	lhu	a5,4(a0)
    234c:	c601                	beqz	a2,2354 <SPI_I2S_DMACmd+0xa>
    234e:	8ddd                	or	a1,a1,a5
    2350:	a14e                	sh	a1,4(a0)
    2352:	8082                	ret
    2354:	fff5c593          	not	a1,a1
    2358:	8dfd                	and	a1,a1,a5
    235a:	bfdd                	j	2350 <SPI_I2S_DMACmd+0x6>

0000235c <SPI_I2S_SendData>:
    235c:	a54e                	sh	a1,12(a0)
    235e:	8082                	ret

00002360 <SPI_I2S_ReceiveData>:
    2360:	254a                	lhu	a0,12(a0)
    2362:	8082                	ret

00002364 <SPI_I2S_GetFlagStatus>:
    2364:	250a                	lhu	a0,8(a0)
    2366:	8d6d                	and	a0,a0,a1
    2368:	00a03533          	snez	a0,a0
    236c:	8082                	ret

0000236e <TI1_Config>:
    236e:	311e                	lhu	a5,32(a0)
    2370:	0692                	slli	a3,a3,0x4
    2372:	07c2                	slli	a5,a5,0x10
    2374:	83c1                	srli	a5,a5,0x10
    2376:	9bf9                	andi	a5,a5,-2
    2378:	07c2                	slli	a5,a5,0x10
    237a:	83c1                	srli	a5,a5,0x10
    237c:	b11e                	sh	a5,32(a0)
    237e:	2d1a                	lhu	a4,24(a0)
    2380:	311e                	lhu	a5,32(a0)
    2382:	01855303          	lhu	t1,24(a0)
    2386:	0742                	slli	a4,a4,0x10
    2388:	8341                	srli	a4,a4,0x10
    238a:	00666333          	or	t1,a2,t1
    238e:	f0c77713          	andi	a4,a4,-244
    2392:	8e55                	or	a2,a2,a3
    2394:	8f51                	or	a4,a4,a2
    2396:	400136b7          	lui	a3,0x40013
    239a:	07c2                	slli	a5,a5,0x10
    239c:	0742                	slli	a4,a4,0x10
    239e:	00651c23          	sh	t1,24(a0)
    23a2:	c0068693          	addi	a3,a3,-1024 # 40012c00 <__global_pointer$+0x20012368>
    23a6:	83c1                	srli	a5,a5,0x10
    23a8:	8341                	srli	a4,a4,0x10
    23aa:	00d50663          	beq	a0,a3,23b6 <TI1_Config+0x48>
    23ae:	400006b7          	lui	a3,0x40000
    23b2:	00d51963          	bne	a0,a3,23c4 <TI1_Config+0x56>
    23b6:	9bf5                	andi	a5,a5,-3
    23b8:	8fcd                	or	a5,a5,a1
    23ba:	0017e793          	ori	a5,a5,1
    23be:	ad1a                	sh	a4,24(a0)
    23c0:	b11e                	sh	a5,32(a0)
    23c2:	8082                	ret
    23c4:	9bd5                	andi	a5,a5,-11
    23c6:	bfcd                	j	23b8 <TI1_Config+0x4a>

000023c8 <TI2_Config>:
    23c8:	311e                	lhu	a5,32(a0)
    23ca:	0622                	slli	a2,a2,0x8
    23cc:	0642                	slli	a2,a2,0x10
    23ce:	07c2                	slli	a5,a5,0x10
    23d0:	83c1                	srli	a5,a5,0x10
    23d2:	9bbd                	andi	a5,a5,-17
    23d4:	07c2                	slli	a5,a5,0x10
    23d6:	83c1                	srli	a5,a5,0x10
    23d8:	b11e                	sh	a5,32(a0)
    23da:	01855303          	lhu	t1,24(a0)
    23de:	6785                	lui	a5,0x1
    23e0:	cff78793          	addi	a5,a5,-769 # cff <Screen_Init+0x7d>
    23e4:	311a                	lhu	a4,32(a0)
    23e6:	0067f7b3          	and	a5,a5,t1
    23ea:	01855303          	lhu	t1,24(a0)
    23ee:	8241                	srli	a2,a2,0x10
    23f0:	06b2                	slli	a3,a3,0xc
    23f2:	00666333          	or	t1,a2,t1
    23f6:	8e55                	or	a2,a2,a3
    23f8:	8fd1                	or	a5,a5,a2
    23fa:	400136b7          	lui	a3,0x40013
    23fe:	0742                	slli	a4,a4,0x10
    2400:	07c2                	slli	a5,a5,0x10
    2402:	00651c23          	sh	t1,24(a0)
    2406:	c0068693          	addi	a3,a3,-1024 # 40012c00 <__global_pointer$+0x20012368>
    240a:	8341                	srli	a4,a4,0x10
    240c:	83c1                	srli	a5,a5,0x10
    240e:	00d50663          	beq	a0,a3,241a <TI2_Config+0x52>
    2412:	400006b7          	lui	a3,0x40000
    2416:	00d51d63          	bne	a0,a3,2430 <TI2_Config+0x68>
    241a:	0592                	slli	a1,a1,0x4
    241c:	fdf77713          	andi	a4,a4,-33
    2420:	8dd9                	or	a1,a1,a4
    2422:	05c2                	slli	a1,a1,0x10
    2424:	81c1                	srli	a1,a1,0x10
    2426:	0105e593          	ori	a1,a1,16
    242a:	ad1e                	sh	a5,24(a0)
    242c:	b10e                	sh	a1,32(a0)
    242e:	8082                	ret
    2430:	f5f77713          	andi	a4,a4,-161
    2434:	8dd9                	or	a1,a1,a4
    2436:	bfc5                	j	2426 <TI2_Config+0x5e>

00002438 <TIM_TimeBaseInit>:
    2438:	211e                	lhu	a5,0(a0)
    243a:	40013737          	lui	a4,0x40013
    243e:	c0070713          	addi	a4,a4,-1024 # 40012c00 <__global_pointer$+0x20012368>
    2442:	07c2                	slli	a5,a5,0x10
    2444:	83c1                	srli	a5,a5,0x10
    2446:	00e50663          	beq	a0,a4,2452 <TIM_TimeBaseInit+0x1a>
    244a:	40000737          	lui	a4,0x40000
    244e:	00e51663          	bne	a0,a4,245a <TIM_TimeBaseInit+0x22>
    2452:	21ba                	lhu	a4,2(a1)
    2454:	f8f7f793          	andi	a5,a5,-113
    2458:	8fd9                	or	a5,a5,a4
    245a:	21fa                	lhu	a4,6(a1)
    245c:	cff7f793          	andi	a5,a5,-769
    2460:	07c2                	slli	a5,a5,0x10
    2462:	83c1                	srli	a5,a5,0x10
    2464:	8fd9                	or	a5,a5,a4
    2466:	a11e                	sh	a5,0(a0)
    2468:	21de                	lhu	a5,4(a1)
    246a:	b55e                	sh	a5,44(a0)
    246c:	219e                	lhu	a5,0(a1)
    246e:	b51e                	sh	a5,40(a0)
    2470:	400137b7          	lui	a5,0x40013
    2474:	c0078793          	addi	a5,a5,-1024 # 40012c00 <__global_pointer$+0x20012368>
    2478:	00f51463          	bne	a0,a5,2480 <TIM_TimeBaseInit+0x48>
    247c:	259c                	lbu	a5,8(a1)
    247e:	b91e                	sh	a5,48(a0)
    2480:	4785                	li	a5,1
    2482:	a95e                	sh	a5,20(a0)
    2484:	8082                	ret

00002486 <TIM_OC1Init>:
    2486:	311e                	lhu	a5,32(a0)
    2488:	2192                	lhu	a2,0(a1)
    248a:	0025d303          	lhu	t1,2(a1)
    248e:	07c2                	slli	a5,a5,0x10
    2490:	83c1                	srli	a5,a5,0x10
    2492:	9bf9                	andi	a5,a5,-2
    2494:	07c2                	slli	a5,a5,0x10
    2496:	83c1                	srli	a5,a5,0x10
    2498:	b11e                	sh	a5,32(a0)
    249a:	311e                	lhu	a5,32(a0)
    249c:	2156                	lhu	a3,4(a0)
    249e:	2d1a                	lhu	a4,24(a0)
    24a0:	07c2                	slli	a5,a5,0x10
    24a2:	83c1                	srli	a5,a5,0x10
    24a4:	0742                	slli	a4,a4,0x10
    24a6:	8341                	srli	a4,a4,0x10
    24a8:	f8c77713          	andi	a4,a4,-116
    24ac:	8f51                	or	a4,a4,a2
    24ae:	2592                	lhu	a2,8(a1)
    24b0:	9bf5                	andi	a5,a5,-3
    24b2:	06c2                	slli	a3,a3,0x10
    24b4:	00666633          	or	a2,a2,t1
    24b8:	8fd1                	or	a5,a5,a2
    24ba:	40013637          	lui	a2,0x40013
    24be:	c0060613          	addi	a2,a2,-1024 # 40012c00 <__global_pointer$+0x20012368>
    24c2:	82c1                	srli	a3,a3,0x10
    24c4:	02c51063          	bne	a0,a2,24e4 <TIM_OC1Init+0x5e>
    24c8:	25b2                	lhu	a2,10(a1)
    24ca:	9bdd                	andi	a5,a5,-9
    24cc:	00e5d303          	lhu	t1,14(a1)
    24d0:	8fd1                	or	a5,a5,a2
    24d2:	21d2                	lhu	a2,4(a1)
    24d4:	9bed                	andi	a5,a5,-5
    24d6:	cff6f693          	andi	a3,a3,-769
    24da:	8fd1                	or	a5,a5,a2
    24dc:	25d2                	lhu	a2,12(a1)
    24de:	00666633          	or	a2,a2,t1
    24e2:	8ed1                	or	a3,a3,a2
    24e4:	a156                	sh	a3,4(a0)
    24e6:	ad1a                	sh	a4,24(a0)
    24e8:	21fa                	lhu	a4,6(a1)
    24ea:	d958                	sw	a4,52(a0)
    24ec:	b11e                	sh	a5,32(a0)
    24ee:	8082                	ret

000024f0 <TIM_OC2Init>:
    24f0:	311e                	lhu	a5,32(a0)
    24f2:	7765                	lui	a4,0xffff9
    24f4:	cff70713          	addi	a4,a4,-769 # ffff8cff <__global_pointer$+0xdfff8467>
    24f8:	07c2                	slli	a5,a5,0x10
    24fa:	83c1                	srli	a5,a5,0x10
    24fc:	9bbd                	andi	a5,a5,-17
    24fe:	07c2                	slli	a5,a5,0x10
    2500:	83c1                	srli	a5,a5,0x10
    2502:	b11e                	sh	a5,32(a0)
    2504:	311e                	lhu	a5,32(a0)
    2506:	2156                	lhu	a3,4(a0)
    2508:	0085d303          	lhu	t1,8(a1)
    250c:	07c2                	slli	a5,a5,0x10
    250e:	01069613          	slli	a2,a3,0x10
    2512:	2d16                	lhu	a3,24(a0)
    2514:	83c1                	srli	a5,a5,0x10
    2516:	fdf7f793          	andi	a5,a5,-33
    251a:	8f75                	and	a4,a4,a3
    251c:	2196                	lhu	a3,0(a1)
    251e:	8241                	srli	a2,a2,0x10
    2520:	06a2                	slli	a3,a3,0x8
    2522:	8f55                	or	a4,a4,a3
    2524:	21b6                	lhu	a3,2(a1)
    2526:	0742                	slli	a4,a4,0x10
    2528:	8341                	srli	a4,a4,0x10
    252a:	0066e6b3          	or	a3,a3,t1
    252e:	0692                	slli	a3,a3,0x4
    2530:	8fd5                	or	a5,a5,a3
    2532:	400136b7          	lui	a3,0x40013
    2536:	07c2                	slli	a5,a5,0x10
    2538:	c0068693          	addi	a3,a3,-1024 # 40012c00 <__global_pointer$+0x20012368>
    253c:	83c1                	srli	a5,a5,0x10
    253e:	02d51e63          	bne	a0,a3,257a <TIM_OC2Init+0x8a>
    2542:	25b6                	lhu	a3,10(a1)
    2544:	f7f7f793          	andi	a5,a5,-129
    2548:	00c5d303          	lhu	t1,12(a1)
    254c:	0692                	slli	a3,a3,0x4
    254e:	8fd5                	or	a5,a5,a3
    2550:	21d6                	lhu	a3,4(a1)
    2552:	07c2                	slli	a5,a5,0x10
    2554:	83c1                	srli	a5,a5,0x10
    2556:	0692                	slli	a3,a3,0x4
    2558:	fbf7f793          	andi	a5,a5,-65
    255c:	8fd5                	or	a5,a5,a3
    255e:	76fd                	lui	a3,0xfffff
    2560:	3ff68693          	addi	a3,a3,1023 # fffff3ff <__global_pointer$+0xdfffeb67>
    2564:	8ef1                	and	a3,a3,a2
    2566:	25f2                	lhu	a2,14(a1)
    2568:	07c2                	slli	a5,a5,0x10
    256a:	83c1                	srli	a5,a5,0x10
    256c:	00666633          	or	a2,a2,t1
    2570:	060a                	slli	a2,a2,0x2
    2572:	8ed1                	or	a3,a3,a2
    2574:	01069613          	slli	a2,a3,0x10
    2578:	8241                	srli	a2,a2,0x10
    257a:	a152                	sh	a2,4(a0)
    257c:	ad1a                	sh	a4,24(a0)
    257e:	21fa                	lhu	a4,6(a1)
    2580:	dd18                	sw	a4,56(a0)
    2582:	b11e                	sh	a5,32(a0)
    2584:	8082                	ret

00002586 <TIM_OC3Init>:
    2586:	311e                	lhu	a5,32(a0)
    2588:	2192                	lhu	a2,0(a1)
    258a:	0085d303          	lhu	t1,8(a1)
    258e:	07c2                	slli	a5,a5,0x10
    2590:	83c1                	srli	a5,a5,0x10
    2592:	eff7f793          	andi	a5,a5,-257
    2596:	07c2                	slli	a5,a5,0x10
    2598:	83c1                	srli	a5,a5,0x10
    259a:	b11e                	sh	a5,32(a0)
    259c:	311e                	lhu	a5,32(a0)
    259e:	2156                	lhu	a3,4(a0)
    25a0:	2d5a                	lhu	a4,28(a0)
    25a2:	07c2                	slli	a5,a5,0x10
    25a4:	83c1                	srli	a5,a5,0x10
    25a6:	0742                	slli	a4,a4,0x10
    25a8:	8341                	srli	a4,a4,0x10
    25aa:	f8c77713          	andi	a4,a4,-116
    25ae:	8f51                	or	a4,a4,a2
    25b0:	21b2                	lhu	a2,2(a1)
    25b2:	dff7f793          	andi	a5,a5,-513
    25b6:	06c2                	slli	a3,a3,0x10
    25b8:	00666633          	or	a2,a2,t1
    25bc:	0622                	slli	a2,a2,0x8
    25be:	8fd1                	or	a5,a5,a2
    25c0:	01079613          	slli	a2,a5,0x10
    25c4:	400137b7          	lui	a5,0x40013
    25c8:	c0078793          	addi	a5,a5,-1024 # 40012c00 <__global_pointer$+0x20012368>
    25cc:	82c1                	srli	a3,a3,0x10
    25ce:	8241                	srli	a2,a2,0x10
    25d0:	02f51f63          	bne	a0,a5,260e <TIM_OC3Init+0x88>
    25d4:	77fd                	lui	a5,0xfffff
    25d6:	7ff78793          	addi	a5,a5,2047 # fffff7ff <__global_pointer$+0xdfffef67>
    25da:	8ff1                	and	a5,a5,a2
    25dc:	25b2                	lhu	a2,10(a1)
    25de:	00c5d303          	lhu	t1,12(a1)
    25e2:	0622                	slli	a2,a2,0x8
    25e4:	8fd1                	or	a5,a5,a2
    25e6:	21d2                	lhu	a2,4(a1)
    25e8:	07c2                	slli	a5,a5,0x10
    25ea:	83c1                	srli	a5,a5,0x10
    25ec:	0622                	slli	a2,a2,0x8
    25ee:	bff7f793          	andi	a5,a5,-1025
    25f2:	8fd1                	or	a5,a5,a2
    25f4:	01079613          	slli	a2,a5,0x10
    25f8:	77f5                	lui	a5,0xffffd
    25fa:	17fd                	addi	a5,a5,-1
    25fc:	8efd                	and	a3,a3,a5
    25fe:	25fe                	lhu	a5,14(a1)
    2600:	8241                	srli	a2,a2,0x10
    2602:	0067e7b3          	or	a5,a5,t1
    2606:	0792                	slli	a5,a5,0x4
    2608:	8edd                	or	a3,a3,a5
    260a:	06c2                	slli	a3,a3,0x10
    260c:	82c1                	srli	a3,a3,0x10
    260e:	21fe                	lhu	a5,6(a1)
    2610:	a156                	sh	a3,4(a0)
    2612:	ad5a                	sh	a4,28(a0)
    2614:	dd5c                	sw	a5,60(a0)
    2616:	b112                	sh	a2,32(a0)
    2618:	8082                	ret

0000261a <TIM_TimeBaseStructInit>:
    261a:	57fd                	li	a5,-1
    261c:	a15e                	sh	a5,4(a0)
    261e:	00051023          	sh	zero,0(a0)
    2622:	00051323          	sh	zero,6(a0)
    2626:	00051123          	sh	zero,2(a0)
    262a:	00050423          	sb	zero,8(a0)
    262e:	8082                	ret

00002630 <TIM_Cmd>:
    2630:	211e                	lhu	a5,0(a0)
    2632:	c589                	beqz	a1,263c <TIM_Cmd+0xc>
    2634:	0017e793          	ori	a5,a5,1
    2638:	a11e                	sh	a5,0(a0)
    263a:	8082                	ret
    263c:	07c2                	slli	a5,a5,0x10
    263e:	83c1                	srli	a5,a5,0x10
    2640:	9bf9                	andi	a5,a5,-2
    2642:	07c2                	slli	a5,a5,0x10
    2644:	83c1                	srli	a5,a5,0x10
    2646:	bfcd                	j	2638 <TIM_Cmd+0x8>

00002648 <TIM_CtrlPWMOutputs>:
    2648:	04455783          	lhu	a5,68(a0)
    264c:	c591                	beqz	a1,2658 <TIM_CtrlPWMOutputs+0x10>
    264e:	6721                	lui	a4,0x8
    2650:	8fd9                	or	a5,a5,a4
    2652:	04f51223          	sh	a5,68(a0)
    2656:	8082                	ret
    2658:	07c6                	slli	a5,a5,0x11
    265a:	83c5                	srli	a5,a5,0x11
    265c:	bfdd                	j	2652 <TIM_CtrlPWMOutputs+0xa>

0000265e <TIM_ITConfig>:
    265e:	255e                	lhu	a5,12(a0)
    2660:	c601                	beqz	a2,2668 <TIM_ITConfig+0xa>
    2662:	8ddd                	or	a1,a1,a5
    2664:	a54e                	sh	a1,12(a0)
    2666:	8082                	ret
    2668:	fff5c593          	not	a1,a1
    266c:	8dfd                	and	a1,a1,a5
    266e:	bfdd                	j	2664 <TIM_ITConfig+0x6>

00002670 <TIM_EncoderInterfaceConfig>:
    2670:	00855303          	lhu	t1,8(a0)
    2674:	2d1a                	lhu	a4,24(a0)
    2676:	311e                	lhu	a5,32(a0)
    2678:	0342                	slli	t1,t1,0x10
    267a:	01035313          	srli	t1,t1,0x10
    267e:	07c2                	slli	a5,a5,0x10
    2680:	0742                	slli	a4,a4,0x10
    2682:	83c1                	srli	a5,a5,0x10
    2684:	0692                	slli	a3,a3,0x4
    2686:	8341                	srli	a4,a4,0x10
    2688:	ff837313          	andi	t1,t1,-8
    268c:	fdd7f793          	andi	a5,a5,-35
    2690:	8e55                	or	a2,a2,a3
    2692:	00b365b3          	or	a1,t1,a1
    2696:	cfc77713          	andi	a4,a4,-772
    269a:	8fd1                	or	a5,a5,a2
    269c:	a50e                	sh	a1,8(a0)
    269e:	10176713          	ori	a4,a4,257
    26a2:	07c2                	slli	a5,a5,0x10
    26a4:	83c1                	srli	a5,a5,0x10
    26a6:	ad1a                	sh	a4,24(a0)
    26a8:	b11e                	sh	a5,32(a0)
    26aa:	8082                	ret

000026ac <TIM_ARRPreloadConfig>:
    26ac:	211e                	lhu	a5,0(a0)
    26ae:	c589                	beqz	a1,26b8 <TIM_ARRPreloadConfig+0xc>
    26b0:	0807e793          	ori	a5,a5,128
    26b4:	a11e                	sh	a5,0(a0)
    26b6:	8082                	ret
    26b8:	07c2                	slli	a5,a5,0x10
    26ba:	83c1                	srli	a5,a5,0x10
    26bc:	f7f7f793          	andi	a5,a5,-129
    26c0:	07c2                	slli	a5,a5,0x10
    26c2:	83c1                	srli	a5,a5,0x10
    26c4:	bfc5                	j	26b4 <TIM_ARRPreloadConfig+0x8>

000026c6 <TIM_OC1PreloadConfig>:
    26c6:	2d1e                	lhu	a5,24(a0)
    26c8:	07c2                	slli	a5,a5,0x10
    26ca:	83c1                	srli	a5,a5,0x10
    26cc:	9bdd                	andi	a5,a5,-9
    26ce:	8ddd                	or	a1,a1,a5
    26d0:	ad0e                	sh	a1,24(a0)
    26d2:	8082                	ret

000026d4 <TIM_OC2PreloadConfig>:
    26d4:	2d1a                	lhu	a4,24(a0)
    26d6:	77fd                	lui	a5,0xfffff
    26d8:	7ff78793          	addi	a5,a5,2047 # fffff7ff <__global_pointer$+0xdfffef67>
    26dc:	8ff9                	and	a5,a5,a4
    26de:	05a2                	slli	a1,a1,0x8
    26e0:	8fcd                	or	a5,a5,a1
    26e2:	07c2                	slli	a5,a5,0x10
    26e4:	83c1                	srli	a5,a5,0x10
    26e6:	ad1e                	sh	a5,24(a0)
    26e8:	8082                	ret

000026ea <TIM_OC3PreloadConfig>:
    26ea:	2d5e                	lhu	a5,28(a0)
    26ec:	07c2                	slli	a5,a5,0x10
    26ee:	83c1                	srli	a5,a5,0x10
    26f0:	9bdd                	andi	a5,a5,-9
    26f2:	8ddd                	or	a1,a1,a5
    26f4:	ad4e                	sh	a1,28(a0)
    26f6:	8082                	ret

000026f8 <TIM_SetCounter>:
    26f8:	b14e                	sh	a1,36(a0)
    26fa:	8082                	ret

000026fc <TIM_SetIC1Prescaler>:
    26fc:	2d1e                	lhu	a5,24(a0)
    26fe:	07c2                	slli	a5,a5,0x10
    2700:	83c1                	srli	a5,a5,0x10
    2702:	9bcd                	andi	a5,a5,-13
    2704:	07c2                	slli	a5,a5,0x10
    2706:	83c1                	srli	a5,a5,0x10
    2708:	ad1e                	sh	a5,24(a0)
    270a:	2d1e                	lhu	a5,24(a0)
    270c:	8ddd                	or	a1,a1,a5
    270e:	ad0e                	sh	a1,24(a0)
    2710:	8082                	ret

00002712 <TIM_SetIC2Prescaler>:
    2712:	2d1a                	lhu	a4,24(a0)
    2714:	77fd                	lui	a5,0xfffff
    2716:	3ff78793          	addi	a5,a5,1023 # fffff3ff <__global_pointer$+0xdfffeb67>
    271a:	8ff9                	and	a5,a5,a4
    271c:	ad1e                	sh	a5,24(a0)
    271e:	2d1e                	lhu	a5,24(a0)
    2720:	05a2                	slli	a1,a1,0x8
    2722:	8ddd                	or	a1,a1,a5
    2724:	05c2                	slli	a1,a1,0x10
    2726:	81c1                	srli	a1,a1,0x10
    2728:	ad0e                	sh	a1,24(a0)
    272a:	8082                	ret

0000272c <TIM_ICInit>:
    272c:	975fd2ef          	jal	t0,a0 <__riscv_save_0>
    2730:	219e                	lhu	a5,0(a1)
    2732:	84aa                	mv	s1,a0
    2734:	842e                	mv	s0,a1
    2736:	eb99                	bnez	a5,274c <TIM_ICInit+0x20>
    2738:	2596                	lhu	a3,8(a1)
    273a:	21d2                	lhu	a2,4(a1)
    273c:	21ae                	lhu	a1,2(a1)
    273e:	c31ff0ef          	jal	ra,236e <TI1_Config>
    2742:	206e                	lhu	a1,6(s0)
    2744:	8526                	mv	a0,s1
    2746:	3f5d                	jal	26fc <TIM_SetIC1Prescaler>
    2748:	963fd06f          	j	aa <__riscv_restore_0>
    274c:	4711                	li	a4,4
    274e:	fee79de3          	bne	a5,a4,2748 <TIM_ICInit+0x1c>
    2752:	2596                	lhu	a3,8(a1)
    2754:	21d2                	lhu	a2,4(a1)
    2756:	21ae                	lhu	a1,2(a1)
    2758:	c71ff0ef          	jal	ra,23c8 <TI2_Config>
    275c:	206e                	lhu	a1,6(s0)
    275e:	8526                	mv	a0,s1
    2760:	3f4d                	jal	2712 <TIM_SetIC2Prescaler>
    2762:	b7dd                	j	2748 <TIM_ICInit+0x1c>

00002764 <TIM_ClearFlag>:
    2764:	fff5c593          	not	a1,a1
    2768:	05c2                	slli	a1,a1,0x10
    276a:	81c1                	srli	a1,a1,0x10
    276c:	a90e                	sh	a1,16(a0)
    276e:	8082                	ret

00002770 <TIM_GetITStatus>:
    2770:	291e                	lhu	a5,16(a0)
    2772:	254a                	lhu	a0,12(a0)
    2774:	8fed                	and	a5,a5,a1
    2776:	0542                	slli	a0,a0,0x10
    2778:	8141                	srli	a0,a0,0x10
    277a:	c789                	beqz	a5,2784 <TIM_GetITStatus+0x14>
    277c:	8d6d                	and	a0,a0,a1
    277e:	00a03533          	snez	a0,a0
    2782:	8082                	ret
    2784:	4501                	li	a0,0
    2786:	8082                	ret

00002788 <TIM_ClearITPendingBit>:
    2788:	fff5c593          	not	a1,a1
    278c:	05c2                	slli	a1,a1,0x10
    278e:	81c1                	srli	a1,a1,0x10
    2790:	a90e                	sh	a1,16(a0)
    2792:	8082                	ret

00002794 <USART_Init>:
    2794:	90dfd2ef          	jal	t0,a0 <__riscv_save_0>
    2798:	2916                	lhu	a3,16(a0)
    279a:	77f5                	lui	a5,0xffffd
    279c:	17fd                	addi	a5,a5,-1
    279e:	8ff5                	and	a5,a5,a3
    27a0:	21f6                	lhu	a3,6(a1)
    27a2:	25da                	lhu	a4,12(a1)
    27a4:	1121                	addi	sp,sp,-24
    27a6:	8fd5                	or	a5,a5,a3
    27a8:	a91e                	sh	a5,16(a0)
    27aa:	2556                	lhu	a3,12(a0)
    27ac:	77fd                	lui	a5,0xfffff
    27ae:	9f378793          	addi	a5,a5,-1549 # ffffe9f3 <__global_pointer$+0xdfffe15b>
    27b2:	8ff5                	and	a5,a5,a3
    27b4:	21d6                	lhu	a3,4(a1)
    27b6:	842a                	mv	s0,a0
    27b8:	c02e                	sw	a1,0(sp)
    27ba:	8fd5                	or	a5,a5,a3
    27bc:	2596                	lhu	a3,8(a1)
    27be:	8fd5                	or	a5,a5,a3
    27c0:	25b6                	lhu	a3,10(a1)
    27c2:	8fd5                	or	a5,a5,a3
    27c4:	a55e                	sh	a5,12(a0)
    27c6:	295e                	lhu	a5,20(a0)
    27c8:	07c2                	slli	a5,a5,0x10
    27ca:	83c1                	srli	a5,a5,0x10
    27cc:	cff7f793          	andi	a5,a5,-769
    27d0:	8f5d                	or	a4,a4,a5
    27d2:	a95a                	sh	a4,20(a0)
    27d4:	0048                	addi	a0,sp,4
    27d6:	a0fff0ef          	jal	ra,21e4 <RCC_GetClocksFreq>
    27da:	400147b7          	lui	a5,0x40014
    27de:	80078793          	addi	a5,a5,-2048 # 40013800 <__global_pointer$+0x20012f68>
    27e2:	4582                	lw	a1,0(sp)
    27e4:	06f41263          	bne	s0,a5,2848 <USART_Init+0xb4>
    27e8:	47c2                	lw	a5,16(sp)
    27ea:	245a                	lhu	a4,12(s0)
    27ec:	00179513          	slli	a0,a5,0x1
    27f0:	953e                	add	a0,a0,a5
    27f2:	0742                	slli	a4,a4,0x10
    27f4:	050e                	slli	a0,a0,0x3
    27f6:	8741                	srai	a4,a4,0x10
    27f8:	953e                	add	a0,a0,a5
    27fa:	418c                	lw	a1,0(a1)
    27fc:	04075863          	bgez	a4,284c <USART_Init+0xb8>
    2800:	0586                	slli	a1,a1,0x1
    2802:	8d3fd0ef          	jal	ra,d4 <__udivsi3>
    2806:	06400593          	li	a1,100
    280a:	c02a                	sw	a0,0(sp)
    280c:	8c9fd0ef          	jal	ra,d4 <__udivsi3>
    2810:	4782                	lw	a5,0(sp)
    2812:	00451493          	slli	s1,a0,0x4
    2816:	06400593          	li	a1,100
    281a:	853e                	mv	a0,a5
    281c:	8e5fd0ef          	jal	ra,100 <__umodsi3>
    2820:	245e                	lhu	a5,12(s0)
    2822:	07c2                	slli	a5,a5,0x10
    2824:	87c1                	srai	a5,a5,0x10
    2826:	0207d563          	bgez	a5,2850 <USART_Init+0xbc>
    282a:	050e                	slli	a0,a0,0x3
    282c:	06400593          	li	a1,100
    2830:	03250513          	addi	a0,a0,50
    2834:	8a1fd0ef          	jal	ra,d4 <__udivsi3>
    2838:	891d                	andi	a0,a0,7
    283a:	8cc9                	or	s1,s1,a0
    283c:	04c2                	slli	s1,s1,0x10
    283e:	80c1                	srli	s1,s1,0x10
    2840:	a406                	sh	s1,8(s0)
    2842:	0161                	addi	sp,sp,24
    2844:	867fd06f          	j	aa <__riscv_restore_0>
    2848:	47b2                	lw	a5,12(sp)
    284a:	b745                	j	27ea <USART_Init+0x56>
    284c:	058a                	slli	a1,a1,0x2
    284e:	bf55                	j	2802 <USART_Init+0x6e>
    2850:	0512                	slli	a0,a0,0x4
    2852:	06400593          	li	a1,100
    2856:	03250513          	addi	a0,a0,50
    285a:	87bfd0ef          	jal	ra,d4 <__udivsi3>
    285e:	893d                	andi	a0,a0,15
    2860:	bfe9                	j	283a <USART_Init+0xa6>

00002862 <USART_Cmd>:
    2862:	c591                	beqz	a1,286e <USART_Cmd+0xc>
    2864:	255e                	lhu	a5,12(a0)
    2866:	6709                	lui	a4,0x2
    2868:	8fd9                	or	a5,a5,a4
    286a:	a55e                	sh	a5,12(a0)
    286c:	8082                	ret
    286e:	255a                	lhu	a4,12(a0)
    2870:	77f9                	lui	a5,0xffffe
    2872:	17fd                	addi	a5,a5,-1
    2874:	8ff9                	and	a5,a5,a4
    2876:	bfd5                	j	286a <USART_Cmd+0x8>

00002878 <USART_SendData>:
    2878:	1ff5f593          	andi	a1,a1,511
    287c:	a14e                	sh	a1,4(a0)
    287e:	8082                	ret

00002880 <USART_GetFlagStatus>:
    2880:	210a                	lhu	a0,0(a0)
    2882:	8d6d                	and	a0,a0,a1
    2884:	00a03533          	snez	a0,a0
    2888:	8082                	ret

0000288a <GPIO_Init_Pin>:
    288a:	817fd2ef          	jal	t0,a0 <__riscv_save_0>
    288e:	1151                	addi	sp,sp,-12
    2890:	806c                	sh	a1,0(sp)
    2892:	478d                	li	a5,3
    2894:	858a                	mv	a1,sp
    2896:	c432                	sw	a2,8(sp)
    2898:	c23e                	sw	a5,4(sp)
    289a:	00011123          	sh	zero,2(sp)
    289e:	ffaff0ef          	jal	ra,2098 <GPIO_Init>
    28a2:	0131                	addi	sp,sp,12
    28a4:	807fd06f          	j	aa <__riscv_restore_0>

000028a8 <My_GPIO_Init>:
    28a8:	ff8fd2ef          	jal	t0,a0 <__riscv_save_0>
    28ac:	4585                	li	a1,1
    28ae:	03400513          	li	a0,52
    28b2:	9f3ff0ef          	jal	ra,22a4 <RCC_APB2PeriphClockCmd>
    28b6:	4585                	li	a1,1
    28b8:	10000537          	lui	a0,0x10000
    28bc:	40011437          	lui	s0,0x40011
    28c0:	a03ff0ef          	jal	ra,22c2 <RCC_APB1PeriphClockCmd>
    28c4:	80040513          	addi	a0,s0,-2048 # 40010800 <__global_pointer$+0x2000ff68>
    28c8:	4601                	li	a2,0
    28ca:	4589                	li	a1,2
    28cc:	3f7d                	jal	288a <GPIO_Init_Pin>
    28ce:	80040513          	addi	a0,s0,-2048
    28d2:	4661                	li	a2,24
    28d4:	4591                	li	a1,4
    28d6:	3f55                	jal	288a <GPIO_Init_Pin>
    28d8:	4641                	li	a2,16
    28da:	4585                	li	a1,1
    28dc:	40011537          	lui	a0,0x40011
    28e0:	376d                	jal	288a <GPIO_Init_Pin>
    28e2:	04800613          	li	a2,72
    28e6:	4589                	li	a1,2
    28e8:	40011537          	lui	a0,0x40011
    28ec:	3f79                	jal	288a <GPIO_Init_Pin>
    28ee:	4641                	li	a2,16
    28f0:	4591                	li	a1,4
    28f2:	40011537          	lui	a0,0x40011
    28f6:	3f51                	jal	288a <GPIO_Init_Pin>
    28f8:	4661                	li	a2,24
    28fa:	45a1                	li	a1,8
    28fc:	40011537          	lui	a0,0x40011
    2900:	3769                	jal	288a <GPIO_Init_Pin>
    2902:	4641                	li	a2,16
    2904:	45c1                	li	a1,16
    2906:	40011537          	lui	a0,0x40011
    290a:	3741                	jal	288a <GPIO_Init_Pin>
    290c:	4661                	li	a2,24
    290e:	02000593          	li	a1,32
    2912:	40011537          	lui	a0,0x40011
    2916:	3f95                	jal	288a <GPIO_Init_Pin>
    2918:	4661                	li	a2,24
    291a:	04000593          	li	a1,64
    291e:	40011537          	lui	a0,0x40011
    2922:	f69ff0ef          	jal	ra,288a <GPIO_Init_Pin>
    2926:	40040513          	addi	a0,s0,1024
    292a:	4661                	li	a2,24
    292c:	4585                	li	a1,1
    292e:	f5dff0ef          	jal	ra,288a <GPIO_Init_Pin>
    2932:	40040513          	addi	a0,s0,1024
    2936:	04800613          	li	a2,72
    293a:	4591                	li	a1,4
    293c:	f4fff0ef          	jal	ra,288a <GPIO_Init_Pin>
    2940:	40040513          	addi	a0,s0,1024
    2944:	04800613          	li	a2,72
    2948:	45a1                	li	a1,8
    294a:	f41ff0ef          	jal	ra,288a <GPIO_Init_Pin>
    294e:	40040513          	addi	a0,s0,1024
    2952:	04800613          	li	a2,72
    2956:	45c1                	li	a1,16
    2958:	f33ff0ef          	jal	ra,288a <GPIO_Init_Pin>
    295c:	4661                	li	a2,24
    295e:	40040513          	addi	a0,s0,1024
    2962:	02000593          	li	a1,32
    2966:	f25ff0ef          	jal	ra,288a <GPIO_Init_Pin>
    296a:	45c1                	li	a1,16
    296c:	40011537          	lui	a0,0x40011
    2970:	faeff0ef          	jal	ra,211e <GPIO_SetBits>
    2974:	f36fd06f          	j	aa <__riscv_restore_0>

00002978 <Delay_Init>:
    2978:	f28fd2ef          	jal	t0,a0 <__riscv_save_0>
    297c:	200007b7          	lui	a5,0x20000
    2980:	06c7a503          	lw	a0,108(a5) # 2000006c <SystemCoreClock>
    2984:	007a15b7          	lui	a1,0x7a1
    2988:	20058593          	addi	a1,a1,512 # 7a1200 <_data_lma+0x79d848>
    298c:	f48fd0ef          	jal	ra,d4 <__udivsi3>
    2990:	0ff57513          	andi	a0,a0,255
    2994:	98a18b23          	sb	a0,-1642(gp) # 2000022e <p_us>
    2998:	00551793          	slli	a5,a0,0x5
    299c:	8f89                	sub	a5,a5,a0
    299e:	078a                	slli	a5,a5,0x2
    29a0:	953e                	add	a0,a0,a5
    29a2:	050e                	slli	a0,a0,0x3
    29a4:	98a19a23          	sh	a0,-1644(gp) # 2000022c <p_ms>
    29a8:	f02fd06f          	j	aa <__riscv_restore_0>

000029ac <Delay_Ms>:
    29ac:	ef4fd2ef          	jal	t0,a0 <__riscv_save_0>
    29b0:	e000f437          	lui	s0,0xe000f
    29b4:	405c                	lw	a5,4(s0)
    29b6:	85aa                	mv	a1,a0
    29b8:	9bf9                	andi	a5,a5,-2
    29ba:	c05c                	sw	a5,4(s0)
    29bc:	9941d503          	lhu	a0,-1644(gp) # 2000022c <p_ms>
    29c0:	ef4fd0ef          	jal	ra,b4 <__mulsi3>
    29c4:	c808                	sw	a0,16(s0)
    29c6:	00042423          	sw	zero,8(s0) # e000f008 <__global_pointer$+0xc000e770>
    29ca:	401c                	lw	a5,0(s0)
    29cc:	0017e793          	ori	a5,a5,1
    29d0:	c01c                	sw	a5,0(s0)
    29d2:	e000f7b7          	lui	a5,0xe000f
    29d6:	43d8                	lw	a4,4(a5)
    29d8:	8b05                	andi	a4,a4,1
    29da:	df75                	beqz	a4,29d6 <Delay_Ms+0x2a>
    29dc:	4398                	lw	a4,0(a5)
    29de:	9b79                	andi	a4,a4,-2
    29e0:	c398                	sw	a4,0(a5)
    29e2:	ec8fd06f          	j	aa <__riscv_restore_0>

000029e6 <USART_Printf_Init>:
    29e6:	ebafd2ef          	jal	t0,a0 <__riscv_save_0>
    29ea:	842a                	mv	s0,a0
    29ec:	6511                	lui	a0,0x4
    29ee:	1111                	addi	sp,sp,-28
    29f0:	4585                	li	a1,1
    29f2:	02050513          	addi	a0,a0,32 # 4020 <_data_lma+0x668>
    29f6:	8afff0ef          	jal	ra,22a4 <RCC_APB2PeriphClockCmd>
    29fa:	02000793          	li	a5,32
    29fe:	807c                	sh	a5,0(sp)
    2a00:	40011537          	lui	a0,0x40011
    2a04:	478d                	li	a5,3
    2a06:	c23e                	sw	a5,4(sp)
    2a08:	858a                	mv	a1,sp
    2a0a:	47e1                	li	a5,24
    2a0c:	40050513          	addi	a0,a0,1024 # 40011400 <__global_pointer$+0x20010b68>
    2a10:	c43e                	sw	a5,8(sp)
    2a12:	e86ff0ef          	jal	ra,2098 <GPIO_Init>
    2a16:	c622                	sw	s0,12(sp)
    2a18:	40014437          	lui	s0,0x40014
    2a1c:	000807b7          	lui	a5,0x80
    2a20:	006c                	addi	a1,sp,12
    2a22:	80040513          	addi	a0,s0,-2048 # 40013800 <__global_pointer$+0x20012f68>
    2a26:	ca3e                	sw	a5,20(sp)
    2a28:	c802                	sw	zero,16(sp)
    2a2a:	00011c23          	sh	zero,24(sp)
    2a2e:	d67ff0ef          	jal	ra,2794 <USART_Init>
    2a32:	4585                	li	a1,1
    2a34:	80040513          	addi	a0,s0,-2048
    2a38:	e2bff0ef          	jal	ra,2862 <USART_Cmd>
    2a3c:	0171                	addi	sp,sp,28
    2a3e:	e6cfd06f          	j	aa <__riscv_restore_0>

00002a42 <_write>:
    2a42:	e5efd2ef          	jal	t0,a0 <__riscv_save_0>
    2a46:	1171                	addi	sp,sp,-4
    2a48:	84ae                	mv	s1,a1
    2a4a:	4401                	li	s0,0
    2a4c:	02c45f63          	bge	s0,a2,2a8a <_write+0x48>
    2a50:	400147b7          	lui	a5,0x40014
    2a54:	80078713          	addi	a4,a5,-2048 # 40013800 <__global_pointer$+0x20012f68>
    2a58:	853a                	mv	a0,a4
    2a5a:	04000593          	li	a1,64
    2a5e:	c032                	sw	a2,0(sp)
    2a60:	e21ff0ef          	jal	ra,2880 <USART_GetFlagStatus>
    2a64:	400147b7          	lui	a5,0x40014
    2a68:	80078713          	addi	a4,a5,-2048 # 40013800 <__global_pointer$+0x20012f68>
    2a6c:	4602                	lw	a2,0(sp)
    2a6e:	d56d                	beqz	a0,2a58 <_write+0x16>
    2a70:	00848733          	add	a4,s1,s0
    2a74:	00070583          	lb	a1,0(a4) # 2000 <DMA_ClearITPendingBit+0x2>
    2a78:	80078513          	addi	a0,a5,-2048
    2a7c:	0405                	addi	s0,s0,1
    2a7e:	05c2                	slli	a1,a1,0x10
    2a80:	81c1                	srli	a1,a1,0x10
    2a82:	df7ff0ef          	jal	ra,2878 <USART_SendData>
    2a86:	4602                	lw	a2,0(sp)
    2a88:	b7d1                	j	2a4c <_write+0xa>
    2a8a:	8532                	mv	a0,a2
    2a8c:	0111                	addi	sp,sp,4
    2a8e:	e1cfd06f          	j	aa <__riscv_restore_0>

00002a92 <intToStr>:
    2a92:	e0efd2ef          	jal	t0,a0 <__riscv_save_0>
    2a96:	1131                	addi	sp,sp,-20
    2a98:	84aa                	mv	s1,a0
    2a9a:	86ae                	mv	a3,a1
    2a9c:	4301                	li	t1,0
    2a9e:	00055563          	bgez	a0,2aa8 <intToStr+0x16>
    2aa2:	40a004b3          	neg	s1,a0
    2aa6:	4305                	li	t1,1
    2aa8:	4701                	li	a4,0
    2aaa:	00170413          	addi	s0,a4,1
    2aae:	008687b3          	add	a5,a3,s0
    2ab2:	45a9                	li	a1,10
    2ab4:	8526                	mv	a0,s1
    2ab6:	c832                	sw	a2,16(sp)
    2ab8:	c61a                	sw	t1,12(sp)
    2aba:	c43a                	sw	a4,8(sp)
    2abc:	c236                	sw	a3,4(sp)
    2abe:	c03e                	sw	a5,0(sp)
    2ac0:	e64fd0ef          	jal	ra,124 <__modsi3>
    2ac4:	4782                	lw	a5,0(sp)
    2ac6:	03050513          	addi	a0,a0,48
    2aca:	45a9                	li	a1,10
    2acc:	fea78fa3          	sb	a0,-1(a5)
    2ad0:	8526                	mv	a0,s1
    2ad2:	dfafd0ef          	jal	ra,cc <__divsi3>
    2ad6:	42a5                	li	t0,9
    2ad8:	4692                	lw	a3,4(sp)
    2ada:	4722                	lw	a4,8(sp)
    2adc:	4332                	lw	t1,12(sp)
    2ade:	4642                	lw	a2,16(sp)
    2ae0:	0292ce63          	blt	t0,s1,2b1c <intToStr+0x8a>
    2ae4:	00030863          	beqz	t1,2af4 <intToStr+0x62>
    2ae8:	00270413          	addi	s0,a4,2
    2aec:	4702                	lw	a4,0(sp)
    2aee:	02d00793          	li	a5,45
    2af2:	a31c                	sb	a5,0(a4)
    2af4:	87a2                	mv	a5,s0
    2af6:	03000593          	li	a1,48
    2afa:	00f68733          	add	a4,a3,a5
    2afe:	02c7c263          	blt	a5,a2,2b22 <intToStr+0x90>
    2b02:	01f7d613          	srli	a2,a5,0x1f
    2b06:	97b2                	add	a5,a5,a2
    2b08:	00070023          	sb	zero,0(a4)
    2b0c:	8785                	srai	a5,a5,0x1
    2b0e:	4601                	li	a2,0
    2b10:	177d                	addi	a4,a4,-1
    2b12:	00f64b63          	blt	a2,a5,2b28 <intToStr+0x96>
    2b16:	0151                	addi	sp,sp,20
    2b18:	d92fd06f          	j	aa <__riscv_restore_0>
    2b1c:	8722                	mv	a4,s0
    2b1e:	84aa                	mv	s1,a0
    2b20:	b769                	j	2aaa <intToStr+0x18>
    2b22:	a30c                	sb	a1,0(a4)
    2b24:	0785                	addi	a5,a5,1
    2b26:	bfd1                	j	2afa <intToStr+0x68>
    2b28:	00c685b3          	add	a1,a3,a2
    2b2c:	00070303          	lb	t1,0(a4)
    2b30:	00058503          	lb	a0,0(a1)
    2b34:	0605                	addi	a2,a2,1
    2b36:	00658023          	sb	t1,0(a1)
    2b3a:	a308                	sb	a0,0(a4)
    2b3c:	bfd1                	j	2b10 <intToStr+0x7e>

00002b3e <Check_Reset_Flag>:
    2b3e:	d62fd2ef          	jal	t0,a0 <__riscv_save_0>
    2b42:	400217b7          	lui	a5,0x40021
    2b46:	53d8                	lw	a4,36(a5)
    2b48:	00571693          	slli	a3,a4,0x5
    2b4c:	0206d063          	bgez	a3,2b6c <Check_Reset_Flag+0x2e>
    2b50:	00004537          	lui	a0,0x4
    2b54:	95050513          	addi	a0,a0,-1712 # 3950 <percent_points+0x10c>
    2b58:	2d89                	jal	31aa <puts>
    2b5a:	40021737          	lui	a4,0x40021
    2b5e:	535c                	lw	a5,36(a4)
    2b60:	010006b7          	lui	a3,0x1000
    2b64:	8fd5                	or	a5,a5,a3
    2b66:	d35c                	sw	a5,36(a4)
    2b68:	d42fd06f          	j	aa <__riscv_restore_0>
    2b6c:	53d8                	lw	a4,36(a5)
    2b6e:	00471693          	slli	a3,a4,0x4
    2b72:	0006d763          	bgez	a3,2b80 <Check_Reset_Flag+0x42>
    2b76:	00004537          	lui	a0,0x4
    2b7a:	96050513          	addi	a0,a0,-1696 # 3960 <percent_points+0x11c>
    2b7e:	bfe9                	j	2b58 <Check_Reset_Flag+0x1a>
    2b80:	53d8                	lw	a4,36(a5)
    2b82:	00371693          	slli	a3,a4,0x3
    2b86:	0006d763          	bgez	a3,2b94 <Check_Reset_Flag+0x56>
    2b8a:	00004537          	lui	a0,0x4
    2b8e:	97050513          	addi	a0,a0,-1680 # 3970 <percent_points+0x12c>
    2b92:	b7d9                	j	2b58 <Check_Reset_Flag+0x1a>
    2b94:	53d8                	lw	a4,36(a5)
    2b96:	00271693          	slli	a3,a4,0x2
    2b9a:	0006d763          	bgez	a3,2ba8 <Check_Reset_Flag+0x6a>
    2b9e:	00004537          	lui	a0,0x4
    2ba2:	98050513          	addi	a0,a0,-1664 # 3980 <percent_points+0x13c>
    2ba6:	bf4d                	j	2b58 <Check_Reset_Flag+0x1a>
    2ba8:	53d8                	lw	a4,36(a5)
    2baa:	00171693          	slli	a3,a4,0x1
    2bae:	0006d763          	bgez	a3,2bbc <Check_Reset_Flag+0x7e>
    2bb2:	00004537          	lui	a0,0x4
    2bb6:	99050513          	addi	a0,a0,-1648 # 3990 <percent_points+0x14c>
    2bba:	bf79                	j	2b58 <Check_Reset_Flag+0x1a>
    2bbc:	53dc                	lw	a5,36(a5)
    2bbe:	f807dee3          	bgez	a5,2b5a <Check_Reset_Flag+0x1c>
    2bc2:	00004537          	lui	a0,0x4
    2bc6:	9a050513          	addi	a0,a0,-1632 # 39a0 <percent_points+0x15c>
    2bca:	b779                	j	2b58 <Check_Reset_Flag+0x1a>

00002bcc <printchar>:
    2bcc:	1141                	addi	sp,sp,-16
    2bce:	c606                	sw	ra,12(sp)
    2bd0:	c02e                	sw	a1,0(sp)
    2bd2:	cd0d                	beqz	a0,2c0c <printchar+0x40>
    2bd4:	4118                	lw	a4,0(a0)
    2bd6:	87aa                	mv	a5,a0
    2bd8:	c305                	beqz	a4,2bf8 <printchar+0x2c>
    2bda:	4158                	lw	a4,4(a0)
    2bdc:	557d                	li	a0,-1
    2bde:	cb11                	beqz	a4,2bf2 <printchar+0x26>
    2be0:	4685                	li	a3,1
    2be2:	00d71b63          	bne	a4,a3,2bf8 <printchar+0x2c>
    2be6:	4798                	lw	a4,8(a5)
    2be8:	00070023          	sb	zero,0(a4) # 40021000 <__global_pointer$+0x20020768>
    2bec:	0007a223          	sw	zero,4(a5) # 40021004 <__global_pointer$+0x2002076c>
    2bf0:	4505                	li	a0,1
    2bf2:	40b2                	lw	ra,12(sp)
    2bf4:	0141                	addi	sp,sp,16
    2bf6:	8082                	ret
    2bf8:	4798                	lw	a4,8(a5)
    2bfa:	4682                	lw	a3,0(sp)
    2bfc:	a314                	sb	a3,0(a4)
    2bfe:	4798                	lw	a4,8(a5)
    2c00:	0705                	addi	a4,a4,1
    2c02:	c798                	sw	a4,8(a5)
    2c04:	43d8                	lw	a4,4(a5)
    2c06:	177d                	addi	a4,a4,-1
    2c08:	c3d8                	sw	a4,4(a5)
    2c0a:	b7dd                	j	2bf0 <printchar+0x24>
    2c0c:	4605                	li	a2,1
    2c0e:	858a                	mv	a1,sp
    2c10:	e33ff0ef          	jal	ra,2a42 <_write>
    2c14:	bff1                	j	2bf0 <printchar+0x24>

00002c16 <prints>:
    2c16:	1101                	addi	sp,sp,-32
    2c18:	cc22                	sw	s0,24(sp)
    2c1a:	c22e                	sw	a1,4(sp)
    2c1c:	ce06                	sw	ra,28(sp)
    2c1e:	ca26                	sw	s1,20(sp)
    2c20:	842a                	mv	s0,a0
    2c22:	4781                	li	a5,0
    2c24:	02000593          	li	a1,32
    2c28:	02064563          	bltz	a2,2c52 <prints+0x3c>
    2c2c:	4592                	lw	a1,4(sp)
    2c2e:	95be                	add	a1,a1,a5
    2c30:	00058583          	lb	a1,0(a1)
    2c34:	e58d                	bnez	a1,2c5e <prints+0x48>
    2c36:	02c7d863          	bge	a5,a2,2c66 <prints+0x50>
    2c3a:	02e7d463          	bge	a5,a4,2c62 <prints+0x4c>
    2c3e:	8e19                	sub	a2,a2,a4
    2c40:	02000513          	li	a0,32
    2c44:	0026f593          	andi	a1,a3,2
    2c48:	c02a                	sw	a0,0(sp)
    2c4a:	c589                	beqz	a1,2c54 <prints+0x3e>
    2c4c:	e701                	bnez	a4,2c54 <prints+0x3e>
    2c4e:	03000593          	li	a1,48
    2c52:	c02e                	sw	a1,0(sp)
    2c54:	8a85                	andi	a3,a3,1
    2c56:	4481                	li	s1,0
    2c58:	ea9d                	bnez	a3,2c8e <prints+0x78>
    2c5a:	84b2                	mv	s1,a2
    2c5c:	a015                	j	2c80 <prints+0x6a>
    2c5e:	0785                	addi	a5,a5,1
    2c60:	b7f1                	j	2c2c <prints+0x16>
    2c62:	8e1d                	sub	a2,a2,a5
    2c64:	bff1                	j	2c40 <prints+0x2a>
    2c66:	4601                	li	a2,0
    2c68:	bfe1                	j	2c40 <prints+0x2a>
    2c6a:	4582                	lw	a1,0(sp)
    2c6c:	8522                	mv	a0,s0
    2c6e:	c83a                	sw	a4,16(sp)
    2c70:	c632                	sw	a2,12(sp)
    2c72:	c43e                	sw	a5,8(sp)
    2c74:	f59ff0ef          	jal	ra,2bcc <printchar>
    2c78:	47a2                	lw	a5,8(sp)
    2c7a:	4632                	lw	a2,12(sp)
    2c7c:	4742                	lw	a4,16(sp)
    2c7e:	14fd                	addi	s1,s1,-1
    2c80:	fe9045e3          	bgtz	s1,2c6a <prints+0x54>
    2c84:	84b2                	mv	s1,a2
    2c86:	00065363          	bgez	a2,2c8c <prints+0x76>
    2c8a:	4481                	li	s1,0
    2c8c:	8e05                	sub	a2,a2,s1
    2c8e:	02e7c763          	blt	a5,a4,2cbc <prints+0xa6>
    2c92:	87a6                	mv	a5,s1
    2c94:	4692                	lw	a3,4(sp)
    2c96:	40978733          	sub	a4,a5,s1
    2c9a:	9736                	add	a4,a4,a3
    2c9c:	00070583          	lb	a1,0(a4)
    2ca0:	ed9d                	bnez	a1,2cde <prints+0xc8>
    2ca2:	84b2                	mv	s1,a2
    2ca4:	04904663          	bgtz	s1,2cf0 <prints+0xda>
    2ca8:	00065363          	bgez	a2,2cae <prints+0x98>
    2cac:	4601                	li	a2,0
    2cae:	40f2                	lw	ra,28(sp)
    2cb0:	4462                	lw	s0,24(sp)
    2cb2:	44d2                	lw	s1,20(sp)
    2cb4:	00f60533          	add	a0,a2,a5
    2cb8:	6105                	addi	sp,sp,32
    2cba:	8082                	ret
    2cbc:	8f1d                	sub	a4,a4,a5
    2cbe:	87ba                	mv	a5,a4
    2cc0:	03000593          	li	a1,48
    2cc4:	8522                	mv	a0,s0
    2cc6:	c832                	sw	a2,16(sp)
    2cc8:	c63e                	sw	a5,12(sp)
    2cca:	c43a                	sw	a4,8(sp)
    2ccc:	f01ff0ef          	jal	ra,2bcc <printchar>
    2cd0:	47b2                	lw	a5,12(sp)
    2cd2:	4722                	lw	a4,8(sp)
    2cd4:	4642                	lw	a2,16(sp)
    2cd6:	17fd                	addi	a5,a5,-1
    2cd8:	f7e5                	bnez	a5,2cc0 <prints+0xaa>
    2cda:	94ba                	add	s1,s1,a4
    2cdc:	bf5d                	j	2c92 <prints+0x7c>
    2cde:	8522                	mv	a0,s0
    2ce0:	c632                	sw	a2,12(sp)
    2ce2:	c43e                	sw	a5,8(sp)
    2ce4:	ee9ff0ef          	jal	ra,2bcc <printchar>
    2ce8:	47a2                	lw	a5,8(sp)
    2cea:	4632                	lw	a2,12(sp)
    2cec:	0785                	addi	a5,a5,1
    2cee:	b75d                	j	2c94 <prints+0x7e>
    2cf0:	4582                	lw	a1,0(sp)
    2cf2:	8522                	mv	a0,s0
    2cf4:	c432                	sw	a2,8(sp)
    2cf6:	c23e                	sw	a5,4(sp)
    2cf8:	ed5ff0ef          	jal	ra,2bcc <printchar>
    2cfc:	14fd                	addi	s1,s1,-1
    2cfe:	4622                	lw	a2,8(sp)
    2d00:	4792                	lw	a5,4(sp)
    2d02:	b74d                	j	2ca4 <prints+0x8e>

00002d04 <printInt>:
    2d04:	7139                	addi	sp,sp,-64
    2d06:	de06                	sw	ra,60(sp)
    2d08:	dc22                	sw	s0,56(sp)
    2d0a:	da26                	sw	s1,52(sp)
    2d0c:	c23e                	sw	a5,4(sp)
    2d0e:	8332                	mv	t1,a2
    2d10:	863a                	mv	a2,a4
    2d12:	ed91                	bnez	a1,2d2e <printInt+0x2a>
    2d14:	4692                	lw	a3,4(sp)
    2d16:	03000793          	li	a5,48
    2d1a:	4701                	li	a4,0
    2d1c:	086c                	addi	a1,sp,28
    2d1e:	86fc                	sh	a5,28(sp)
    2d20:	ef7ff0ef          	jal	ra,2c16 <prints>
    2d24:	50f2                	lw	ra,60(sp)
    2d26:	5462                	lw	s0,56(sp)
    2d28:	54d2                	lw	s1,52(sp)
    2d2a:	6121                	addi	sp,sp,64
    2d2c:	8082                	ret
    2d2e:	84aa                	mv	s1,a0
    2d30:	8436                	mv	s0,a3
    2d32:	87ae                	mv	a5,a1
    2d34:	ca91                	beqz	a3,2d48 <printInt+0x44>
    2d36:	4729                	li	a4,10
    2d38:	4401                	li	s0,0
    2d3a:	00e31763          	bne	t1,a4,2d48 <printInt+0x44>
    2d3e:	0005d563          	bgez	a1,2d48 <printInt+0x44>
    2d42:	40b007b3          	neg	a5,a1
    2d46:	4405                	li	s0,1
    2d48:	4686                	lw	a3,64(sp)
    2d4a:	020109a3          	sb	zero,51(sp)
    2d4e:	03310713          	addi	a4,sp,51
    2d52:	fc668693          	addi	a3,a3,-58 # ffffc6 <_data_lma+0xffc60e>
    2d56:	c436                	sw	a3,8(sp)
    2d58:	859a                	mv	a1,t1
    2d5a:	853e                	mv	a0,a5
    2d5c:	ca32                	sw	a2,20(sp)
    2d5e:	c83a                	sw	a4,16(sp)
    2d60:	c61a                	sw	t1,12(sp)
    2d62:	c03e                	sw	a5,0(sp)
    2d64:	b9cfd0ef          	jal	ra,100 <__umodsi3>
    2d68:	46a5                	li	a3,9
    2d6a:	4782                	lw	a5,0(sp)
    2d6c:	4332                	lw	t1,12(sp)
    2d6e:	4742                	lw	a4,16(sp)
    2d70:	4652                	lw	a2,20(sp)
    2d72:	00a6d463          	bge	a3,a0,2d7a <printInt+0x76>
    2d76:	46a2                	lw	a3,8(sp)
    2d78:	9536                	add	a0,a0,a3
    2d7a:	03050513          	addi	a0,a0,48
    2d7e:	fff70693          	addi	a3,a4,-1
    2d82:	fea70fa3          	sb	a0,-1(a4)
    2d86:	859a                	mv	a1,t1
    2d88:	853e                	mv	a0,a5
    2d8a:	cc32                	sw	a2,24(sp)
    2d8c:	ca3a                	sw	a4,20(sp)
    2d8e:	c81a                	sw	t1,16(sp)
    2d90:	c63e                	sw	a5,12(sp)
    2d92:	c036                	sw	a3,0(sp)
    2d94:	b40fd0ef          	jal	ra,d4 <__udivsi3>
    2d98:	47b2                	lw	a5,12(sp)
    2d9a:	4342                	lw	t1,16(sp)
    2d9c:	4752                	lw	a4,20(sp)
    2d9e:	4662                	lw	a2,24(sp)
    2da0:	0467fd63          	bgeu	a5,t1,2dfa <printInt+0xf6>
    2da4:	cc09                	beqz	s0,2dbe <printInt+0xba>
    2da6:	ce29                	beqz	a2,2e00 <printInt+0xfc>
    2da8:	4792                	lw	a5,4(sp)
    2daa:	8b89                	andi	a5,a5,2
    2dac:	cbb1                	beqz	a5,2e00 <printInt+0xfc>
    2dae:	02d00593          	li	a1,45
    2db2:	8526                	mv	a0,s1
    2db4:	c432                	sw	a2,8(sp)
    2db6:	e17ff0ef          	jal	ra,2bcc <printchar>
    2dba:	4622                	lw	a2,8(sp)
    2dbc:	167d                	addi	a2,a2,-1
    2dbe:	4792                	lw	a5,4(sp)
    2dc0:	8b91                	andi	a5,a5,4
    2dc2:	c785                	beqz	a5,2dea <printInt+0xe6>
    2dc4:	4706                	lw	a4,64(sp)
    2dc6:	06100793          	li	a5,97
    2dca:	c432                	sw	a2,8(sp)
    2dcc:	03000593          	li	a1,48
    2dd0:	8526                	mv	a0,s1
    2dd2:	04f71163          	bne	a4,a5,2e14 <printInt+0x110>
    2dd6:	df7ff0ef          	jal	ra,2bcc <printchar>
    2dda:	07800593          	li	a1,120
    2dde:	8526                	mv	a0,s1
    2de0:	dedff0ef          	jal	ra,2bcc <printchar>
    2de4:	4622                	lw	a2,8(sp)
    2de6:	0409                	addi	s0,s0,2
    2de8:	1679                	addi	a2,a2,-2
    2dea:	4716                	lw	a4,68(sp)
    2dec:	4692                	lw	a3,4(sp)
    2dee:	4582                	lw	a1,0(sp)
    2df0:	8526                	mv	a0,s1
    2df2:	e25ff0ef          	jal	ra,2c16 <prints>
    2df6:	9522                	add	a0,a0,s0
    2df8:	b735                	j	2d24 <printInt+0x20>
    2dfa:	87aa                	mv	a5,a0
    2dfc:	4702                	lw	a4,0(sp)
    2dfe:	bfa9                	j	2d58 <printInt+0x54>
    2e00:	4682                	lw	a3,0(sp)
    2e02:	02d00793          	li	a5,45
    2e06:	4401                	li	s0,0
    2e08:	fef68fa3          	sb	a5,-1(a3)
    2e0c:	ffe70793          	addi	a5,a4,-2
    2e10:	c03e                	sw	a5,0(sp)
    2e12:	b775                	j	2dbe <printInt+0xba>
    2e14:	db9ff0ef          	jal	ra,2bcc <printchar>
    2e18:	05800593          	li	a1,88
    2e1c:	b7c9                	j	2dde <printInt+0xda>

00002e1e <printLongLongInt>:
    2e1e:	4501                	li	a0,0
    2e20:	8082                	ret

00002e22 <printDouble>:
    2e22:	4501                	li	a0,0
    2e24:	8082                	ret

00002e26 <print>:
    2e26:	fd810113          	addi	sp,sp,-40
    2e2a:	d022                	sw	s0,32(sp)
    2e2c:	ce26                	sw	s1,28(sp)
    2e2e:	d206                	sw	ra,36(sp)
    2e30:	c42a                	sw	a0,8(sp)
    2e32:	82ae                	mv	t0,a1
    2e34:	8432                	mv	s0,a2
    2e36:	c602                	sw	zero,12(sp)
    2e38:	4481                	li	s1,0
    2e3a:	00028583          	lb	a1,0(t0)
    2e3e:	ed91                	bnez	a1,2e5a <print+0x34>
    2e40:	47a2                	lw	a5,8(sp)
    2e42:	c789                	beqz	a5,2e4c <print+0x26>
    2e44:	4581                	li	a1,0
    2e46:	853e                	mv	a0,a5
    2e48:	d85ff0ef          	jal	ra,2bcc <printchar>
    2e4c:	5092                	lw	ra,36(sp)
    2e4e:	5402                	lw	s0,32(sp)
    2e50:	8526                	mv	a0,s1
    2e52:	44f2                	lw	s1,28(sp)
    2e54:	02810113          	addi	sp,sp,40
    2e58:	8082                	ret
    2e5a:	02500793          	li	a5,37
    2e5e:	00f58963          	beq	a1,a5,2e70 <print+0x4a>
    2e62:	4522                	lw	a0,8(sp)
    2e64:	c816                	sw	t0,16(sp)
    2e66:	0485                	addi	s1,s1,1
    2e68:	d65ff0ef          	jal	ra,2bcc <printchar>
    2e6c:	42c2                	lw	t0,16(sp)
    2e6e:	a005                	j	2e8e <print+0x68>
    2e70:	00128783          	lb	a5,1(t0)
    2e74:	00128713          	addi	a4,t0,1
    2e78:	00b79d63          	bne	a5,a1,2e92 <print+0x6c>
    2e7c:	4522                	lw	a0,8(sp)
    2e7e:	02500593          	li	a1,37
    2e82:	c83a                	sw	a4,16(sp)
    2e84:	d49ff0ef          	jal	ra,2bcc <printchar>
    2e88:	4742                	lw	a4,16(sp)
    2e8a:	0485                	addi	s1,s1,1
    2e8c:	82ba                	mv	t0,a4
    2e8e:	0285                	addi	t0,t0,1
    2e90:	b76d                	j	2e3a <print+0x14>
    2e92:	d7dd                	beqz	a5,2e40 <print+0x1a>
    2e94:	02b00693          	li	a3,43
    2e98:	04d78963          	beq	a5,a3,2eea <print+0xc4>
    2e9c:	00f6c863          	blt	a3,a5,2eac <print+0x86>
    2ea0:	02300693          	li	a3,35
    2ea4:	04d78663          	beq	a5,a3,2ef0 <print+0xca>
    2ea8:	4781                	li	a5,0
    2eaa:	a005                	j	2eca <print+0xa4>
    2eac:	02d00693          	li	a3,45
    2eb0:	00d78a63          	beq	a5,a3,2ec4 <print+0x9e>
    2eb4:	03000693          	li	a3,48
    2eb8:	fed798e3          	bne	a5,a3,2ea8 <print+0x82>
    2ebc:	00228713          	addi	a4,t0,2
    2ec0:	4789                	li	a5,2
    2ec2:	a021                	j	2eca <print+0xa4>
    2ec4:	00228713          	addi	a4,t0,2
    2ec8:	4785                	li	a5,1
    2eca:	00070683          	lb	a3,0(a4)
    2ece:	02b00613          	li	a2,43
    2ed2:	04c68363          	beq	a3,a2,2f18 <print+0xf2>
    2ed6:	02d64163          	blt	a2,a3,2ef8 <print+0xd2>
    2eda:	02300613          	li	a2,35
    2ede:	02c68b63          	beq	a3,a2,2f14 <print+0xee>
    2ee2:	82ba                	mv	t0,a4
    2ee4:	4501                	li	a0,0
    2ee6:	46a5                	li	a3,9
    2ee8:	a081                	j	2f28 <print+0x102>
    2eea:	00228713          	addi	a4,t0,2
    2eee:	bf6d                	j	2ea8 <print+0x82>
    2ef0:	00228713          	addi	a4,t0,2
    2ef4:	4791                	li	a5,4
    2ef6:	bfd1                	j	2eca <print+0xa4>
    2ef8:	02d00613          	li	a2,45
    2efc:	00c68963          	beq	a3,a2,2f0e <print+0xe8>
    2f00:	03000613          	li	a2,48
    2f04:	fcc69fe3          	bne	a3,a2,2ee2 <print+0xbc>
    2f08:	0027e793          	ori	a5,a5,2
    2f0c:	a031                	j	2f18 <print+0xf2>
    2f0e:	0705                	addi	a4,a4,1
    2f10:	4785                	li	a5,1
    2f12:	bfc1                	j	2ee2 <print+0xbc>
    2f14:	0047e793          	ori	a5,a5,4
    2f18:	0705                	addi	a4,a4,1
    2f1a:	b7e1                	j	2ee2 <print+0xbc>
    2f1c:	00251613          	slli	a2,a0,0x2
    2f20:	9532                	add	a0,a0,a2
    2f22:	0506                	slli	a0,a0,0x1
    2f24:	953a                	add	a0,a0,a4
    2f26:	0285                	addi	t0,t0,1
    2f28:	00028603          	lb	a2,0(t0)
    2f2c:	fd060713          	addi	a4,a2,-48
    2f30:	0ff77593          	andi	a1,a4,255
    2f34:	feb6f4e3          	bgeu	a3,a1,2f1c <print+0xf6>
    2f38:	02e00713          	li	a4,46
    2f3c:	4699                	li	a3,6
    2f3e:	00e61e63          	bne	a2,a4,2f5a <print+0x134>
    2f42:	0285                	addi	t0,t0,1
    2f44:	4681                	li	a3,0
    2f46:	45a5                	li	a1,9
    2f48:	00028603          	lb	a2,0(t0)
    2f4c:	fd060613          	addi	a2,a2,-48
    2f50:	0ff67713          	andi	a4,a2,255
    2f54:	02e5f563          	bgeu	a1,a4,2f7e <print+0x158>
    2f58:	c636                	sw	a3,12(sp)
    2f5a:	00028703          	lb	a4,0(t0)
    2f5e:	06a00613          	li	a2,106
    2f62:	0ac70d63          	beq	a4,a2,301c <print+0x1f6>
    2f66:	02e64363          	blt	a2,a4,2f8c <print+0x166>
    2f6a:	04c00613          	li	a2,76
    2f6e:	0ac70763          	beq	a4,a2,301c <print+0x1f6>
    2f72:	06800613          	li	a2,104
    2f76:	08c70c63          	beq	a4,a2,300e <print+0x1e8>
    2f7a:	4581                	li	a1,0
    2f7c:	a82d                	j	2fb6 <print+0x190>
    2f7e:	00269713          	slli	a4,a3,0x2
    2f82:	96ba                	add	a3,a3,a4
    2f84:	0686                	slli	a3,a3,0x1
    2f86:	96b2                	add	a3,a3,a2
    2f88:	0285                	addi	t0,t0,1
    2f8a:	bf7d                	j	2f48 <print+0x122>
    2f8c:	07400613          	li	a2,116
    2f90:	08c70663          	beq	a4,a2,301c <print+0x1f6>
    2f94:	07a00613          	li	a2,122
    2f98:	08c70263          	beq	a4,a2,301c <print+0x1f6>
    2f9c:	06c00613          	li	a2,108
    2fa0:	4581                	li	a1,0
    2fa2:	00c71a63          	bne	a4,a2,2fb6 <print+0x190>
    2fa6:	00128603          	lb	a2,1(t0)
    2faa:	458d                	li	a1,3
    2fac:	00e61463          	bne	a2,a4,2fb4 <print+0x18e>
    2fb0:	0285                	addi	t0,t0,1
    2fb2:	4591                	li	a1,4
    2fb4:	0285                	addi	t0,t0,1
    2fb6:	00028603          	lb	a2,0(t0)
    2fba:	06000393          	li	t2,96
    2fbe:	06100713          	li	a4,97
    2fc2:	00c3c463          	blt	t2,a2,2fca <print+0x1a4>
    2fc6:	04100713          	li	a4,65
    2fca:	06700393          	li	t2,103
    2fce:	06c3c463          	blt	t2,a2,3036 <print+0x210>
    2fd2:	06500393          	li	t2,101
    2fd6:	18765663          	bge	a2,t2,3162 <print+0x33c>
    2fda:	04700393          	li	t2,71
    2fde:	04c3c163          	blt	t2,a2,3020 <print+0x1fa>
    2fe2:	04500593          	li	a1,69
    2fe6:	16b65e63          	bge	a2,a1,3162 <print+0x33c>
    2fea:	04300713          	li	a4,67
    2fee:	eae610e3          	bne	a2,a4,2e8e <print+0x68>
    2ff2:	4018                	lw	a4,0(s0)
    2ff4:	00440393          	addi	t2,s0,4
    2ff8:	ca16                	sw	t0,20(sp)
    2ffa:	00e10c23          	sb	a4,24(sp)
    2ffe:	c81e                	sw	t2,16(sp)
    3000:	00010ca3          	sb	zero,25(sp)
    3004:	4701                	li	a4,0
    3006:	86be                	mv	a3,a5
    3008:	862a                	mv	a2,a0
    300a:	082c                	addi	a1,sp,24
    300c:	a849                	j	309e <print+0x278>
    300e:	00128603          	lb	a2,1(t0)
    3012:	4581                	li	a1,0
    3014:	fae611e3          	bne	a2,a4,2fb6 <print+0x190>
    3018:	0289                	addi	t0,t0,2
    301a:	bf71                	j	2fb6 <print+0x190>
    301c:	0285                	addi	t0,t0,1
    301e:	bfb1                	j	2f7a <print+0x154>
    3020:	06300693          	li	a3,99
    3024:	fcd607e3          	beq	a2,a3,2ff2 <print+0x1cc>
    3028:	06c6cf63          	blt	a3,a2,30a6 <print+0x280>
    302c:	05800693          	li	a3,88
    3030:	02d60363          	beq	a2,a3,3056 <print+0x230>
    3034:	bda9                	j	2e8e <print+0x68>
    3036:	07300693          	li	a3,115
    303a:	04d60463          	beq	a2,a3,3082 <print+0x25c>
    303e:	02c6cb63          	blt	a3,a2,3074 <print+0x24e>
    3042:	06f00693          	li	a3,111
    3046:	0ed60563          	beq	a2,a3,3130 <print+0x30a>
    304a:	07000693          	li	a3,112
    304e:	0047e793          	ori	a5,a5,4
    3052:	e2d61ee3          	bne	a2,a3,2e8e <print+0x68>
    3056:	4691                	li	a3,4
    3058:	0cd59263          	bne	a1,a3,311c <print+0x2f6>
    305c:	00840393          	addi	t2,s0,8
    3060:	400c                	lw	a1,0(s0)
    3062:	4050                	lw	a2,4(s0)
    3064:	ca16                	sw	t0,20(sp)
    3066:	c23a                	sw	a4,4(sp)
    3068:	c03e                	sw	a5,0(sp)
    306a:	c81e                	sw	t2,16(sp)
    306c:	87aa                	mv	a5,a0
    306e:	4701                	li	a4,0
    3070:	46c1                	li	a3,16
    3072:	a881                	j	30c2 <print+0x29c>
    3074:	07500693          	li	a3,117
    3078:	06d60b63          	beq	a2,a3,30ee <print+0x2c8>
    307c:	07800693          	li	a3,120
    3080:	bf45                	j	3030 <print+0x20a>
    3082:	4018                	lw	a4,0(s0)
    3084:	000046b7          	lui	a3,0x4
    3088:	00440393          	addi	t2,s0,4
    308c:	9b068593          	addi	a1,a3,-1616 # 39b0 <percent_points+0x16c>
    3090:	c311                	beqz	a4,3094 <print+0x26e>
    3092:	85ba                	mv	a1,a4
    3094:	4732                	lw	a4,12(sp)
    3096:	ca16                	sw	t0,20(sp)
    3098:	c81e                	sw	t2,16(sp)
    309a:	86be                	mv	a3,a5
    309c:	862a                	mv	a2,a0
    309e:	4522                	lw	a0,8(sp)
    30a0:	b77ff0ef          	jal	ra,2c16 <prints>
    30a4:	a015                	j	30c8 <print+0x2a2>
    30a6:	4691                	li	a3,4
    30a8:	02d59563          	bne	a1,a3,30d2 <print+0x2ac>
    30ac:	00840393          	addi	t2,s0,8
    30b0:	400c                	lw	a1,0(s0)
    30b2:	4050                	lw	a2,4(s0)
    30b4:	ca16                	sw	t0,20(sp)
    30b6:	c23a                	sw	a4,4(sp)
    30b8:	c03e                	sw	a5,0(sp)
    30ba:	c81e                	sw	t2,16(sp)
    30bc:	87aa                	mv	a5,a0
    30be:	4705                	li	a4,1
    30c0:	46a9                	li	a3,10
    30c2:	4522                	lw	a0,8(sp)
    30c4:	d5bff0ef          	jal	ra,2e1e <printLongLongInt>
    30c8:	43c2                	lw	t2,16(sp)
    30ca:	94aa                	add	s1,s1,a0
    30cc:	841e                	mv	s0,t2
    30ce:	42d2                	lw	t0,20(sp)
    30d0:	bb7d                	j	2e8e <print+0x68>
    30d2:	46b2                	lw	a3,12(sp)
    30d4:	400c                	lw	a1,0(s0)
    30d6:	c816                	sw	t0,16(sp)
    30d8:	c236                	sw	a3,4(sp)
    30da:	c03a                	sw	a4,0(sp)
    30dc:	0411                	addi	s0,s0,4
    30de:	872a                	mv	a4,a0
    30e0:	4685                	li	a3,1
    30e2:	4629                	li	a2,10
    30e4:	4522                	lw	a0,8(sp)
    30e6:	c1fff0ef          	jal	ra,2d04 <printInt>
    30ea:	94aa                	add	s1,s1,a0
    30ec:	b341                	j	2e6c <print+0x46>
    30ee:	4691                	li	a3,4
    30f0:	00d59d63          	bne	a1,a3,310a <print+0x2e4>
    30f4:	00840393          	addi	t2,s0,8
    30f8:	400c                	lw	a1,0(s0)
    30fa:	4050                	lw	a2,4(s0)
    30fc:	ca16                	sw	t0,20(sp)
    30fe:	c23a                	sw	a4,4(sp)
    3100:	c03e                	sw	a5,0(sp)
    3102:	c81e                	sw	t2,16(sp)
    3104:	87aa                	mv	a5,a0
    3106:	4701                	li	a4,0
    3108:	bf65                	j	30c0 <print+0x29a>
    310a:	46b2                	lw	a3,12(sp)
    310c:	400c                	lw	a1,0(s0)
    310e:	c816                	sw	t0,16(sp)
    3110:	c236                	sw	a3,4(sp)
    3112:	c03a                	sw	a4,0(sp)
    3114:	0411                	addi	s0,s0,4
    3116:	872a                	mv	a4,a0
    3118:	4681                	li	a3,0
    311a:	b7e1                	j	30e2 <print+0x2bc>
    311c:	46b2                	lw	a3,12(sp)
    311e:	c816                	sw	t0,16(sp)
    3120:	400c                	lw	a1,0(s0)
    3122:	4641                	li	a2,16
    3124:	c236                	sw	a3,4(sp)
    3126:	c03a                	sw	a4,0(sp)
    3128:	0411                	addi	s0,s0,4
    312a:	872a                	mv	a4,a0
    312c:	4681                	li	a3,0
    312e:	bf5d                	j	30e4 <print+0x2be>
    3130:	4691                	li	a3,4
    3132:	00d59e63          	bne	a1,a3,314e <print+0x328>
    3136:	00840393          	addi	t2,s0,8
    313a:	400c                	lw	a1,0(s0)
    313c:	4050                	lw	a2,4(s0)
    313e:	ca16                	sw	t0,20(sp)
    3140:	c23a                	sw	a4,4(sp)
    3142:	c03e                	sw	a5,0(sp)
    3144:	c81e                	sw	t2,16(sp)
    3146:	87aa                	mv	a5,a0
    3148:	4701                	li	a4,0
    314a:	46a1                	li	a3,8
    314c:	bf9d                	j	30c2 <print+0x29c>
    314e:	46b2                	lw	a3,12(sp)
    3150:	400c                	lw	a1,0(s0)
    3152:	c816                	sw	t0,16(sp)
    3154:	c236                	sw	a3,4(sp)
    3156:	c03a                	sw	a4,0(sp)
    3158:	0411                	addi	s0,s0,4
    315a:	872a                	mv	a4,a0
    315c:	4681                	li	a3,0
    315e:	4621                	li	a2,8
    3160:	b751                	j	30e4 <print+0x2be>
    3162:	400c                	lw	a1,0(s0)
    3164:	00840613          	addi	a2,s0,8
    3168:	4040                	lw	s0,4(s0)
    316a:	c23a                	sw	a4,4(sp)
    316c:	872a                	mv	a4,a0
    316e:	4522                	lw	a0,8(sp)
    3170:	c832                	sw	a2,16(sp)
    3172:	c03e                	sw	a5,0(sp)
    3174:	8622                	mv	a2,s0
    3176:	87b6                	mv	a5,a3
    3178:	46a9                	li	a3,10
    317a:	ca16                	sw	t0,20(sp)
    317c:	ca7ff0ef          	jal	ra,2e22 <printDouble>
    3180:	94aa                	add	s1,s1,a0
    3182:	4442                	lw	s0,16(sp)
    3184:	b7a9                	j	30ce <print+0x2a8>

00003186 <printf>:
    3186:	fdc10113          	addi	sp,sp,-36
    318a:	c82e                	sw	a1,16(sp)
    318c:	ca32                	sw	a2,20(sp)
    318e:	85aa                	mv	a1,a0
    3190:	0810                	addi	a2,sp,16
    3192:	4501                	li	a0,0
    3194:	c606                	sw	ra,12(sp)
    3196:	cc36                	sw	a3,24(sp)
    3198:	ce3a                	sw	a4,28(sp)
    319a:	d03e                	sw	a5,32(sp)
    319c:	c032                	sw	a2,0(sp)
    319e:	c89ff0ef          	jal	ra,2e26 <print>
    31a2:	40b2                	lw	ra,12(sp)
    31a4:	02410113          	addi	sp,sp,36
    31a8:	8082                	ret

000031aa <puts>:
    31aa:	1141                	addi	sp,sp,-16
    31ac:	c422                	sw	s0,8(sp)
    31ae:	c226                	sw	s1,4(sp)
    31b0:	c606                	sw	ra,12(sp)
    31b2:	211c                	lbu	a5,0(a0)
    31b4:	84aa                	mv	s1,a0
    31b6:	4401                	li	s0,0
    31b8:	81dc                	sb	a5,3(sp)
    31ba:	00310783          	lb	a5,3(sp)
    31be:	0405                	addi	s0,s0,1
    31c0:	ef99                	bnez	a5,31de <puts+0x34>
    31c2:	47a9                	li	a5,10
    31c4:	00310593          	addi	a1,sp,3
    31c8:	4605                	li	a2,1
    31ca:	4501                	li	a0,0
    31cc:	81dc                	sb	a5,3(sp)
    31ce:	875ff0ef          	jal	ra,2a42 <_write>
    31d2:	8522                	mv	a0,s0
    31d4:	40b2                	lw	ra,12(sp)
    31d6:	4422                	lw	s0,8(sp)
    31d8:	4492                	lw	s1,4(sp)
    31da:	0141                	addi	sp,sp,16
    31dc:	8082                	ret
    31de:	4605                	li	a2,1
    31e0:	00310593          	addi	a1,sp,3
    31e4:	4501                	li	a0,0
    31e6:	85dff0ef          	jal	ra,2a42 <_write>
    31ea:	008487b3          	add	a5,s1,s0
    31ee:	239c                	lbu	a5,0(a5)
    31f0:	81dc                	sb	a5,3(sp)
    31f2:	b7e1                	j	31ba <puts+0x10>

000031f4 <strlen>:
    31f4:	87aa                	mv	a5,a0
    31f6:	0785                	addi	a5,a5,1
    31f8:	fff7c703          	lbu	a4,-1(a5)
    31fc:	ff6d                	bnez	a4,31f6 <strlen+0x2>
    31fe:	40a78533          	sub	a0,a5,a0
    3202:	157d                	addi	a0,a0,-1
    3204:	8082                	ret
    3206:	0000                	unimp
    3208:	6150                	flw	fa2,4(a0)
    320a:	6e69                	lui	t3,0x1a
    320c:	5f74                	lw	a3,124(a4)
    320e:	7244                	flw	fs1,36(a2)
    3210:	7761                	lui	a4,0xffff8
    3212:	72616843          	fmadd.d	fa6,ft2,ft6,fa4,unknown
    3216:	6520                	flw	fs0,72(a0)
    3218:	7272                	flw	ft4,60(sp)
    321a:	202c726f          	jal	tp,ca41c <_data_lma+0xc6a64>
    321e:	7058                	flw	fa4,36(s0)
    3220:	746e696f          	jal	s2,e9966 <_data_lma+0xe5fae>
    3224:	3d20                	lbu	s0,27(a0)
    3226:	2520                	lbu	s0,10(a0)
    3228:	2c64                	lbu	s1,30(s0)
    322a:	5920                	lw	s0,112(a0)
    322c:	6f70                	flw	fa2,92(a4)
    322e:	6e69                	lui	t3,0x1a
    3230:	2074                	lbu	a3,6(s0)
    3232:	203d                	jal	3260 <strlen+0x6c>
    3234:	6425                	lui	s0,0x9
    3236:	0a0d                	addi	s4,s4,3
    3238:	0000                	unimp
    323a:	0000                	unimp
    323c:	646e6573          	csrrsi	a0,0x646,28
    3240:	7320                	flw	fs0,96(a4)
    3242:	6970                	flw	fa2,84(a0)
    3244:	6f20                	flw	fs0,88(a4)
    3246:	7475                	lui	s0,0xffffd
    3248:	6974                	flw	fa3,84(a0)
    324a:	656d                	lui	a0,0x1b
    324c:	0d21                	addi	s10,s10,8
    324e:	0000                	unimp
    3250:	6572                	flw	fa0,28(sp)
    3252:	70732063          	0x70732063
    3256:	2069                	jal	32e0 <Font12_English+0x7c>
    3258:	7474756f          	jal	a0,4b19e <_data_lma+0x477e6>
    325c:	6d69                	lui	s10,0x1a
    325e:	2165                	jal	3706 <Font16_english+0x17a>
    3260:	000d                	c.nop	3
	...

00003264 <Font12_English>:
    3264:	8080 8080 8080 8080 8080 8080 0000 3800     ...............8
    3274:	3c44 4444 003e 0000 c000 5840 4464 4444     D<DD>.....@XdDDD
    3284:	00f8 0000 0000 3c00 4044 4440 0038 0000     .......<D@@D8...
    3294:	0c00 3404 444c 4444 003e 0000 0000 3800     ...4LDDD>......8
    32a4:	7c44 4040 003c 0000 1c00 7c20 2020 2020     D|@@<..... |    
    32b4:	007c 0000 0000 3600 444c 4444 043c 0038     |......6LDDD<.8.
    32c4:	c000 5840 4464 4444 00ee 0000 1000 7000     ..@XdDDD.......p
    32d4:	1010 1010 007c 0000 1000 7800 0808 0808     ....|......x....
    32e4:	0808 0070 c000 5c40 7048 4850 00dc 0000     ..p...@\HpPH....
    32f4:	3000 1010 1010 1010 007c 0000 0000 e800     .0......|.......
    3304:	5454 5454 00fe 0000 0000 d800 4464 4444     TTTT........dDDD
    3314:	00ee 0000 0000 3800 4444 4444 0038 0000     .......8DDDD8...
    3324:	0000 d800 4464 4444 4078 00e0 0000 3600     ....dDDDx@.....6
    3334:	444c 4444 043c 000e 0000 6c00 2030 2020     LDDD<......l0   
    3344:	007c 0000 0000 3c00 3844 4404 0078 0000     |......<D8.Dx...
    3354:	0000 7c20 2020 2220 001c 0000 0000 cc00     .. |   "........
    3364:	4444 4c44 0036 0000 0000 ee00 4444 2828     DDDL6.......DD((
    3374:	0010 0000 0000 ee00 5444 5454 0028 0000     ........DTTT(...
    3384:	0000 cc00 3048 4830 00cc 0000 0000 ee00     ....H00H........
    3394:	2444 1828 1010 0078 0000 7c00 1048 4420     D$(...x....|H. D
    33a4:	007c 0000                                   |...

000033a8 <Font16_Number>:
    33a8:	0000 000e 001b 8031 8031 8031 8031 8031     ......1.1.1.1.1.
    33b8:	8031 001b 000e 0000 0000 0000 0000 0000     1...............
    33c8:	0000 0006 003e 0006 0006 0006 0006 0006     ....>...........
    33d8:	0006 0006 c03f 0000 0000 0000 0000 0000     ....?...........
    33e8:	0000 000f 8019 8031 8031 0003 0006 000c     ......1.1.......
    33f8:	0018 0030 803f 0000 0000 0000 0000 0000     ..0.?...........
    3408:	0000 003f 8061 8001 0003 001f 8003 8001     ..?.a...........
    3418:	8001 8061 003f 0000 0000 0000 0000 0000     ..a.?...........
    3428:	0000 0007 0007 000f 000b 001b 0013 0033     ..............3.
    3438:	803f 0003 800f 0000 0000 0000 0000 0000     ?...............
    3448:	0000 801f 0018 0018 0018 001f 8011 8001     ................
    3458:	8001 8021 001f 0000 0000 0000 0000 0000     ..!.............
    3468:	0000 8007 001c 0018 0030 0037 8039 8031     ........0.7.9.1.
    3478:	8031 8019 000f 0000 0000 0000 0000 0000     1...............
    3488:	0000 007f 0043 0003 0006 0006 0006 0006     ....C...........
    3498:	000c 000c 000c 0000 0000 0000 0000 0000     ................
    34a8:	0000 001f 8031 8031 8031 001f 8031 8031     ....1.1.1...1.1.
    34b8:	8031 8031 001f 0000 0000 0000 0000 0000     1.1.............
    34c8:	0000 001e 0033 8031 8031 8033 801d 8001     ....3.1.1.3.....
    34d8:	0003 0007 003c 0000 0000 0000 0000 0000     ....<...........
    34e8:	0000 0018 0024 0024 c018 8007 001e 8031     ....$.$.......1.
    34f8:	4002 4002 8001 0000 0000 0000 0000 0000     .@.@............
	...
    3510:	000c 000c 0000 0000 0000 000c 000c 0000     ................
	...

00003548 <Font16_battery>:
    3548:	0000 3f00 00ff 0040 4080 8000 0040 4080     ...?..@..@..@..@
    3558:	e000 0040 40e0 8000 0040 4080 8000 ff3f     ..@..@..@..@..?.
    3568:	0000 0000 0738 4000 8080 8040 4180 8000     ....8..@..@..A..
    3578:	0041 40e0 e020 2040 4080 8000 4040 3c80     A..@ .@ .@..@@.<
    3588:	0007 0000                                   ....

0000358c <Font16_english>:
	...
    3594:	001f 8001 8001 801f 8031 8033 c01d 0000     ........1.3.....
	...
    35ac:	0000 0070 0030 0030 0037 8039 c030 c030     ..p.0.0.7.9.0.0.
    35bc:	c030 8039 0077 0000 0000 0000 0000 0000     0.9.w...........
	...
    35d4:	001f 8031 c060 c07f 0060 c030 801f 0000     ..1.`...`.0.....
	...
    35ec:	0000 e007 000c 000c 803f 000c 000c 000c     ........?.......
    35fc:	000c 000c 803f 0000 0000 0000 0000 0000     ....?...........
	...
    3614:	c01d 8033 8061 8061 8061 8033 801d 8001     ..3.a.a.a.3.....
    3624:	8001 001f 0000 0000 0000 0070 0030 0030     ..........p.0.0.
    3634:	0037 8039 8031 8031 8031 8031 c07b 0000     7.9.1.1.1.1.{...
	...
    364c:	0000 0006 0006 0000 001e 0006 0006 0006     ................
    365c:	0006 0006 c03f 0000 0000 0000 0000 0000     ....?...........
    366c:	0000 0070 0030 0030 8037 0036 003c 003c     ..p.0.0.7.6.<.<.
    367c:	0036 0033 c077 0000 0000 0000 0000 0000     6.3.w...........
    368c:	0000 001e 0006 0006 0006 0006 0006 0006     ................
    369c:	0006 0006 c03f 0000 0000 0000 0000 0000     ....?...........
	...
    36b4:	001f 8031 c060 c060 c060 8031 001f 0000     ..1.`.`.`.1.....
	...
    36d4:	0077 8039 c030 c030 c030 8039 0037 0030     w.9.0.0.0.9.7.0.
    36e4:	0030 007c 0000 0000 0000 0000 0000 0000     0.|.............
    36f4:	c01d 8033 8061 8061 8061 8033 801d 8001     ..3.a.a.a.3.....
    3704:	8001 c007 0000 0000 0000 0000 0000 0000     ................
    3714:	807b c01c 0018 0018 0018 0018 007f 0000     {...............
	...
    3734:	801f 8031 003c 001f 8003 8031 003f 0000     ..1.<.....1.?...
	...
    374c:	0000 0018 0018 0018 007f 0018 0018 0018     ................
    375c:	0018 8018 000f 0000 0000 0000 0000 0000     ................
	...
    3774:	e0f1 c060 c064 c06e 803b 803b 8031 0000     ..`.d.n.;.;.1...
	...

0000378c <Font16_english_map>:
    378c:	6261 6665 6867 6b69 6f6c 7170 7372 7774     abefghiklopqrstw

0000379c <CSWTCH.22>:
    379c:	07ff 07e0 ffe0 0000 fcce ccd1 fabb 0000     ................
    37ac:	b3b1 e2b9 0000 0000 e7b7 c8c9 0000 0000     ................
    37bc:	d5d5 f7c3 0000 0000                         ........

000037c4 <init_cmds>:
    37c4:	c0b0 2fb2 03b3 19b6 01b7 cbac 0eab 04b4     .../............
    37d4:	19a8 053a 08b8 24e8 48e9 22ea 30c6 18c7     ..:....$.H.".0..
    37e4:	1ff0 0428 2a3e 202e 0c00 0006 1f1c f10f     ..(.>*. ........
    37f4:	2d00 3c2f 1c6f 000b 0000 0d07 0f11 1121     .-/<o.........!.
    3804:	0029 0000 6e45 6f63 6564 2072 7075 000d     )...Encoder up..
    3814:	6e45 6f63 6564 2072 6f64 6e77 000d 0000     Encoder down....
    3824:	6964 6173 6c62 2065 6e65 6f63 6564 735f     disable encode_s
    3834:	7274 6375 2074 706f 7265 7461 0d65 0000     truct operate...

00003844 <percent_points>:
    3844:	1900 4b32 0064 0000 3c3c 0000 003c 0000     ..2Kd...<<..<...
    3854:	b4b0 fcbc d0d6 cfb6 bbb1 a5b4 a2b7 000d     ................
    3864:	7473 7261 2074 7270 7365 0d73 0000 0000     start press.....
    3874:	6e65 2064 7270 7365 0d73 0000 454b 5f59     end press...KEY_
    3884:	5645 4e45 5f54 4c43 4349 204b 6e6f 6974     EVENT_CLICK onti
    3894:	656d 000d 454b 5f59 5645 4e45 5f54 4f4c     me..KEY_EVENT_LO
    38a4:	474e 435f 494c 4b43 6f20 746e 6d69 0d65     NG_CLICK ontime.
    38b4:	0000 0000 6964 6173 6c62 2065 656b 2079     ....disable key 
    38c4:	706f 7265 7461 0d65 0000 0000 7473 7261     operate.....star
    38d4:	2074 6863 6761 0d65 0000 0000 6e65 2064     t chage.....end 
    38e4:	6863 6761 0d65 0000 5845 4954 495f 544e     chage...EXTI_INT
    38f4:	495f 494e 0d54 0000 7473 7261 2074 6148     _INIT...start Ha
    3904:	6472 6146 6c75 5f74 6148 646e 656c 0d72     rdFault_Handler.
    3914:	0000 0000 7473 7261 2074 4d4e 5f49 6148     ....start NMI_Ha
    3924:	646e 656c 0d72 0000 7973 7473 6d65 775f     ndler...system_w
    3934:	6b6f 7565 0d70 0000 0a0d 7953 7473 6d65     okeup.....System
    3944:	6c43 3a6b 6425 0a0d 0000 0000 4950 524e     Clk:%d......PINR
    3954:	5453 465f 414c 0d47 0000 0000 4f50 5252     ST_FLAG.....PORR
    3964:	5453 465f 414c 0d47 0000 0000 4653 5254     ST_FLAG.....SFTR
    3974:	5453 465f 414c 0d47 0000 0000 5749 4744     ST_FLAG.....IWDG
    3984:	5352 5f54 4c46 4741 000d 0000 5757 4744     RST_FLAG....WWDG
    3994:	5352 5f54 4c46 4741 000d 0000 504c 5257     RST_FLAG....LPWR
    39a4:	5352 5f54 4c46 4741 000d 0000 6e28 6c75     RST_FLAG....(nul
    39b4:	296c 0000                                   l)..
